ARM GAS  C:\Users\ryant\AppData\Local\Temp\ccCmfcIi.s 			page 1


   1              		.syntax unified
   2              		.cpu cortex-m3
   3              		.fpu softvfp
   4              		.eabi_attribute 20, 1
   5              		.eabi_attribute 21, 1
   6              		.eabi_attribute 23, 3
   7              		.eabi_attribute 24, 1
   8              		.eabi_attribute 25, 1
   9              		.eabi_attribute 26, 1
  10              		.eabi_attribute 30, 1
  11              		.eabi_attribute 34, 1
  12              		.eabi_attribute 18, 4
  13              		.thumb
  14              		.syntax unified
  15              		.file	"main.c"
  16              		.text
  17              	.Ltext0:
  18              		.cfi_sections	.debug_frame
  19              		.global	__aeabi_d2f
  20              		.section	.text.PID_SetVal,"ax",%progbits
  21              		.align	2
  22              		.thumb
  23              		.thumb_func
  24              		.type	PID_SetVal, %function
  25              	PID_SetVal:
  26              	.LFB68:
  27              		.file 1 "main.c"
   1:main.c        **** /* ========================================
   2:main.c        ****  *
   3:main.c        ****  * Copyright YOUR COMPANY, THE YEAR
   4:main.c        ****  * All Rights Reserved
   5:main.c        ****  * UNPUBLISHED, LICENSED SOFTWARE.
   6:main.c        ****  *
   7:main.c        ****  * CONFIDENTIAL AND PROPRIETARY INFORMATION
   8:main.c        ****  * WHICH IS THE PROPERTY OF your company.
   9:main.c        ****  *
  10:main.c        ****  * ========================================
  11:main.c        **** */
  12:main.c        **** #include "project.h"
  13:main.c        **** #include <stdio.h>
  14:main.c        **** #include <stdlib.h>
  15:main.c        **** #include <math.h>
  16:main.c        **** #include <string.h>
  17:main.c        **** 
  18:main.c        **** #define BUF_SIZE 64
  19:main.c        **** #define MICRO_S_PER_COUNT 100
  20:main.c        **** #define CIRCUMFERENCE_FT 0.6477
  21:main.c        **** #define MAGNETS_PER_REV 5.0
  22:main.c        **** #define STOP_PWM 0
  23:main.c        **** #define START_PWM 50
  24:main.c        **** #define MAX_PWM 255
  25:main.c        **** 
  26:main.c        **** int RUN_STATE = 0;
  27:main.c        **** float TARGET_SPEED = 4.9;
  28:main.c        **** float kp = 95;
  29:main.c        **** float ki = 20;
  30:main.c        **** float kd = 0;
ARM GAS  C:\Users\ryant\AppData\Local\Temp\ccCmfcIi.s 			page 2


  31:main.c        **** float prev_error = 0;
  32:main.c        **** float prev_i_term = 0;
  33:main.c        **** 
  34:main.c        **** void PWM_Control(uint8 duty) {
  35:main.c        ****     PWM_Motor_WriteCompare(duty);
  36:main.c        **** }
  37:main.c        **** 
  38:main.c        **** uint8 PID_Control(float speed, uint16 count) {
  39:main.c        ****         float p_term;
  40:main.c        ****         float i_term;
  41:main.c        ****         float d_term;
  42:main.c        ****         float output;
  43:main.c        ****         char outputBuf[16];
  44:main.c        ****     
  45:main.c        ****         float error = TARGET_SPEED - speed;
  46:main.c        ****         
  47:main.c        ****         uint16 dt = count * MICRO_S_PER_COUNT;
  48:main.c        ****         
  49:main.c        ****         p_term = kp * error;
  50:main.c        ****     
  51:main.c        ****         i_term =  ((ki/1000) * (prev_i_term + (error)*(dt)));
  52:main.c        ****         
  53:main.c        ****         d_term = kd * ((error - prev_error)/dt);
  54:main.c        ****         
  55:main.c        ****         
  56:main.c        ****         sprintf(outputBuf, "P_term: %i ", (int)p_term);
  57:main.c        ****         XBEE_PutString(outputBuf);
  58:main.c        ****         sprintf(outputBuf, "I_term: %i ", (int)i_term);
  59:main.c        ****         XBEE_PutString(outputBuf);
  60:main.c        ****         sprintf(outputBuf, "D_term: %i \n\r", (int)d_term);
  61:main.c        ****         XBEE_PutString(outputBuf);
  62:main.c        ****         
  63:main.c        ****         
  64:main.c        ****         
  65:main.c        ****         output = p_term + i_term + d_term;
  66:main.c        ****         
  67:main.c        ****         
  68:main.c        ****         
  69:main.c        ****         prev_error = error;
  70:main.c        ****         prev_i_term = i_term;
  71:main.c        ****         
  72:main.c        ****         if (output > MAX_PWM) {
  73:main.c        ****             output = MAX_PWM; 
  74:main.c        ****         }
  75:main.c        ****         
  76:main.c        ****         return (uint8)output;
  77:main.c        **** }
  78:main.c        **** 
  79:main.c        **** 
  80:main.c        **** void LCD_Reset(void) {
  81:main.c        ****     LCD_ClearDisplay();
  82:main.c        ****     LCD_Position(0,0);
  83:main.c        **** }
  84:main.c        **** 
  85:main.c        **** CY_ISR(inter) {
  86:main.c        ****     uint16 count;
  87:main.c        ****     int elapsed_time_micro_s;
ARM GAS  C:\Users\ryant\AppData\Local\Temp\ccCmfcIi.s 			page 3


  88:main.c        ****     float elapsed_time_s; 
  89:main.c        ****     char buf[64];
  90:main.c        ****     float speed;
  91:main.c        ****     uint8 pwm_value;
  92:main.c        ****     
  93:main.c        ****     /* Is program running? */
  94:main.c        ****     if (RUN_STATE == 1) {
  95:main.c        ****         
  96:main.c        ****     /* Calculate pwm value */
  97:main.c        ****     count = Counter_ReadCapture();
  98:main.c        ****     count = 65535 - count;
  99:main.c        ****     elapsed_time_micro_s = count * MICRO_S_PER_COUNT;
 100:main.c        ****     elapsed_time_s = (float) elapsed_time_micro_s / (float) 1e6;
 101:main.c        ****     speed = (float) CIRCUMFERENCE_FT / (elapsed_time_s * (float) MAGNETS_PER_REV);
 102:main.c        ****     pwm_value = PID_Control(speed, count);
 103:main.c        ****     
 104:main.c        ****     /*----Print to XBEE----*/
 105:main.c        ****     sprintf(buf, "Speed: %d\n\r", (int) (speed*1000.0));
 106:main.c        ****     XBEE_PutString(buf);
 107:main.c        ****     sprintf(buf, "PWM_VALUE: %d\n\r", pwm_value);
 108:main.c        ****     XBEE_PutString(buf);
 109:main.c        ****     /*---------------------*/
 110:main.c        ****     
 111:main.c        ****     
 112:main.c        ****     } else {
 113:main.c        ****         pwm_value = 0;
 114:main.c        ****     }
 115:main.c        ****     
 116:main.c        ****     /* Set PWM Value */
 117:main.c        ****     PWM_Control(pwm_value);
 118:main.c        ****     
 119:main.c        ****     Counter_Reset_Write(1);
 120:main.c        ****     Counter_Reset_Write(0);
 121:main.c        **** }
 122:main.c        **** 
 123:main.c        **** static float PID_SetVal(char numBuf[], int numIndex, char readBuf[]) {
  28              		.loc 1 123 0
  29              		.cfi_startproc
  30              		@ args = 0, pretend = 0, frame = 0
  31              		@ frame_needed = 0, uses_anonymous_args = 0
  32              	.LVL0:
  33 0000 10B5     		push	{r4, lr}
  34              		.cfi_def_cfa_offset 8
  35              		.cfi_offset 4, -8
  36              		.cfi_offset 14, -4
  37              	.LVL1:
 124:main.c        ****     
 125:main.c        ****     int bufIndex = 2;
 126:main.c        ****     char readChar = readBuf[bufIndex]; 
  38              		.loc 1 126 0
  39 0002 9478     		ldrb	r4, [r2, #2]	@ zero_extendqisi2
  40              	.LVL2:
 125:main.c        ****     char readChar = readBuf[bufIndex]; 
  41              		.loc 1 125 0
  42 0004 0223     		movs	r3, #2
 127:main.c        ****     
 128:main.c        ****     while (readChar != '\r') {
ARM GAS  C:\Users\ryant\AppData\Local\Temp\ccCmfcIi.s 			page 4


  43              		.loc 1 128 0
  44 0006 04E0     		b	.L2
  45              	.LVL3:
  46              	.L3:
 129:main.c        ****         numBuf[numIndex] = readBuf[bufIndex];
  47              		.loc 1 129 0
  48 0008 D45C     		ldrb	r4, [r2, r3]	@ zero_extendqisi2
  49              	.LVL4:
  50 000a 4454     		strb	r4, [r0, r1]
 130:main.c        ****         numIndex++;
  51              		.loc 1 130 0
  52 000c 0131     		adds	r1, r1, #1
  53              	.LVL5:
 131:main.c        ****         bufIndex++;
  54              		.loc 1 131 0
  55 000e 0133     		adds	r3, r3, #1
  56              	.LVL6:
 132:main.c        ****         readChar = readBuf[bufIndex];
  57              		.loc 1 132 0
  58 0010 D45C     		ldrb	r4, [r2, r3]	@ zero_extendqisi2
  59              	.LVL7:
  60              	.L2:
 128:main.c        ****         numBuf[numIndex] = readBuf[bufIndex];
  61              		.loc 1 128 0
  62 0012 0D2C     		cmp	r4, #13
  63 0014 F8D1     		bne	.L3
 133:main.c        ****     }
 134:main.c        **** 
 135:main.c        ****     numBuf[numIndex] = '\0';
  64              		.loc 1 135 0
  65 0016 0023     		movs	r3, #0
  66              	.LVL8:
  67 0018 4354     		strb	r3, [r0, r1]
 136:main.c        ****     
 137:main.c        ****     return atof(numBuf);
  68              		.loc 1 137 0
  69 001a FFF7FEFF 		bl	atof
  70              	.LVL9:
  71 001e FFF7FEFF 		bl	__aeabi_d2f
  72              	.LVL10:
 138:main.c        **** }
  73              		.loc 1 138 0
  74 0022 10BD     		pop	{r4, pc}
  75              		.cfi_endproc
  76              	.LFE68:
  77              		.size	PID_SetVal, .-PID_SetVal
  78              		.section	.text.PWM_Control,"ax",%progbits
  79              		.align	2
  80              		.global	PWM_Control
  81              		.thumb
  82              		.thumb_func
  83              		.type	PWM_Control, %function
  84              	PWM_Control:
  85              	.LFB64:
  34:main.c        ****     PWM_Motor_WriteCompare(duty);
  86              		.loc 1 34 0
  87              		.cfi_startproc
ARM GAS  C:\Users\ryant\AppData\Local\Temp\ccCmfcIi.s 			page 5


  88              		@ args = 0, pretend = 0, frame = 0
  89              		@ frame_needed = 0, uses_anonymous_args = 0
  90              	.LVL11:
  91 0000 08B5     		push	{r3, lr}
  92              		.cfi_def_cfa_offset 8
  93              		.cfi_offset 3, -8
  94              		.cfi_offset 14, -4
  35:main.c        **** }
  95              		.loc 1 35 0
  96 0002 FFF7FEFF 		bl	PWM_Motor_WriteCompare
  97              	.LVL12:
  98 0006 08BD     		pop	{r3, pc}
  99              		.cfi_endproc
 100              	.LFE64:
 101              		.size	PWM_Control, .-PWM_Control
 102              		.global	__aeabi_fsub
 103              		.global	__aeabi_fmul
 104              		.global	__aeabi_fdiv
 105              		.global	__aeabi_i2f
 106              		.global	__aeabi_fadd
 107              		.global	__aeabi_f2iz
 108              		.global	__aeabi_fcmpgt
 109              		.global	__aeabi_f2uiz
 110              		.section	.text.PID_Control,"ax",%progbits
 111              		.align	2
 112              		.global	PID_Control
 113              		.thumb
 114              		.thumb_func
 115              		.type	PID_Control, %function
 116              	PID_Control:
 117              	.LFB65:
  38:main.c        ****         float p_term;
 118              		.loc 1 38 0
 119              		.cfi_startproc
 120              		@ args = 0, pretend = 0, frame = 16
 121              		@ frame_needed = 0, uses_anonymous_args = 0
 122              	.LVL13:
 123 0000 2DE9F041 		push	{r4, r5, r6, r7, r8, lr}
 124              		.cfi_def_cfa_offset 24
 125              		.cfi_offset 4, -24
 126              		.cfi_offset 5, -20
 127              		.cfi_offset 6, -16
 128              		.cfi_offset 7, -12
 129              		.cfi_offset 8, -8
 130              		.cfi_offset 14, -4
 131 0004 84B0     		sub	sp, sp, #16
 132              		.cfi_def_cfa_offset 40
 133 0006 0C46     		mov	r4, r1
  45:main.c        ****         
 134              		.loc 1 45 0
 135 0008 344D     		ldr	r5, .L11
 136 000a 0146     		mov	r1, r0
 137              	.LVL14:
 138 000c 2868     		ldr	r0, [r5]	@ float
 139              	.LVL15:
 140 000e FFF7FEFF 		bl	__aeabi_fsub
 141              	.LVL16:
ARM GAS  C:\Users\ryant\AppData\Local\Temp\ccCmfcIi.s 			page 6


 142 0012 0646     		mov	r6, r0
 143              	.LVL17:
  47:main.c        ****         
 144              		.loc 1 47 0
 145 0014 04EB8404 		add	r4, r4, r4, lsl #2
 146 0018 04EB8404 		add	r4, r4, r4, lsl #2
 147 001c A300     		lsls	r3, r4, #2
 148 001e 9CB2     		uxth	r4, r3
 149              	.LVL18:
  49:main.c        ****     
 150              		.loc 1 49 0
 151 0020 6968     		ldr	r1, [r5, #4]	@ float
 152 0022 FFF7FEFF 		bl	__aeabi_fmul
 153              	.LVL19:
 154 0026 8046     		mov	r8, r0
 155              	.LVL20:
  51:main.c        ****         
 156              		.loc 1 51 0
 157 0028 2D49     		ldr	r1, .L11+4
 158 002a A868     		ldr	r0, [r5, #8]	@ float
 159              	.LVL21:
 160 002c FFF7FEFF 		bl	__aeabi_fdiv
 161              	.LVL22:
 162 0030 0546     		mov	r5, r0
 163 0032 2046     		mov	r0, r4
 164 0034 FFF7FEFF 		bl	__aeabi_i2f
 165              	.LVL23:
 166 0038 0746     		mov	r7, r0
 167 003a 0146     		mov	r1, r0
 168 003c 3046     		mov	r0, r6
 169 003e FFF7FEFF 		bl	__aeabi_fmul
 170              	.LVL24:
 171 0042 284C     		ldr	r4, .L11+8
 172              	.LVL25:
 173 0044 2168     		ldr	r1, [r4]	@ float
 174 0046 FFF7FEFF 		bl	__aeabi_fadd
 175              	.LVL26:
 176 004a 0146     		mov	r1, r0
 177 004c 2846     		mov	r0, r5
 178 004e FFF7FEFF 		bl	__aeabi_fmul
 179              	.LVL27:
 180 0052 0546     		mov	r5, r0
 181              	.LVL28:
  53:main.c        ****         
 182              		.loc 1 53 0
 183 0054 6168     		ldr	r1, [r4, #4]	@ float
 184 0056 3046     		mov	r0, r6
 185              	.LVL29:
 186 0058 FFF7FEFF 		bl	__aeabi_fsub
 187              	.LVL30:
 188 005c 3946     		mov	r1, r7
 189 005e FFF7FEFF 		bl	__aeabi_fdiv
 190              	.LVL31:
 191 0062 A168     		ldr	r1, [r4, #8]	@ float
 192 0064 FFF7FEFF 		bl	__aeabi_fmul
 193              	.LVL32:
 194 0068 0746     		mov	r7, r0
ARM GAS  C:\Users\ryant\AppData\Local\Temp\ccCmfcIi.s 			page 7


 195              	.LVL33:
  56:main.c        ****         XBEE_PutString(outputBuf);
 196              		.loc 1 56 0
 197 006a 4046     		mov	r0, r8
 198              	.LVL34:
 199 006c FFF7FEFF 		bl	__aeabi_f2iz
 200              	.LVL35:
 201 0070 0246     		mov	r2, r0
 202 0072 1D49     		ldr	r1, .L11+12
 203 0074 6846     		mov	r0, sp
 204 0076 FFF7FEFF 		bl	sprintf
 205              	.LVL36:
  57:main.c        ****         sprintf(outputBuf, "I_term: %i ", (int)i_term);
 206              		.loc 1 57 0
 207 007a 6846     		mov	r0, sp
 208 007c FFF7FEFF 		bl	XBEE_PutString
 209              	.LVL37:
  58:main.c        ****         XBEE_PutString(outputBuf);
 210              		.loc 1 58 0
 211 0080 2846     		mov	r0, r5
 212 0082 FFF7FEFF 		bl	__aeabi_f2iz
 213              	.LVL38:
 214 0086 0246     		mov	r2, r0
 215 0088 1849     		ldr	r1, .L11+16
 216 008a 6846     		mov	r0, sp
 217 008c FFF7FEFF 		bl	sprintf
 218              	.LVL39:
  59:main.c        ****         sprintf(outputBuf, "D_term: %i \n\r", (int)d_term);
 219              		.loc 1 59 0
 220 0090 6846     		mov	r0, sp
 221 0092 FFF7FEFF 		bl	XBEE_PutString
 222              	.LVL40:
  60:main.c        ****         XBEE_PutString(outputBuf);
 223              		.loc 1 60 0
 224 0096 3846     		mov	r0, r7
 225 0098 FFF7FEFF 		bl	__aeabi_f2iz
 226              	.LVL41:
 227 009c 0246     		mov	r2, r0
 228 009e 1449     		ldr	r1, .L11+20
 229 00a0 6846     		mov	r0, sp
 230 00a2 FFF7FEFF 		bl	sprintf
 231              	.LVL42:
  61:main.c        ****         
 232              		.loc 1 61 0
 233 00a6 6846     		mov	r0, sp
 234 00a8 FFF7FEFF 		bl	XBEE_PutString
 235              	.LVL43:
  65:main.c        ****         
 236              		.loc 1 65 0
 237 00ac 2946     		mov	r1, r5
 238 00ae 4046     		mov	r0, r8
 239 00b0 FFF7FEFF 		bl	__aeabi_fadd
 240              	.LVL44:
 241 00b4 0146     		mov	r1, r0
 242 00b6 3846     		mov	r0, r7
 243 00b8 FFF7FEFF 		bl	__aeabi_fadd
 244              	.LVL45:
ARM GAS  C:\Users\ryant\AppData\Local\Temp\ccCmfcIi.s 			page 8


 245 00bc 0746     		mov	r7, r0
 246              	.LVL46:
  69:main.c        ****         prev_i_term = i_term;
 247              		.loc 1 69 0
 248 00be 6660     		str	r6, [r4, #4]	@ float
  70:main.c        ****         
 249              		.loc 1 70 0
 250 00c0 2560     		str	r5, [r4]	@ float
  72:main.c        ****             output = MAX_PWM; 
 251              		.loc 1 72 0
 252 00c2 0C49     		ldr	r1, .L11+24
 253 00c4 FFF7FEFF 		bl	__aeabi_fcmpgt
 254              	.LVL47:
 255 00c8 00B1     		cbz	r0, .L8
  73:main.c        ****         }
 256              		.loc 1 73 0
 257 00ca 0A4F     		ldr	r7, .L11+24
 258              	.LVL48:
 259              	.L8:
  76:main.c        **** }
 260              		.loc 1 76 0
 261 00cc 3846     		mov	r0, r7
 262 00ce FFF7FEFF 		bl	__aeabi_f2uiz
 263              	.LVL49:
  77:main.c        **** 
 264              		.loc 1 77 0
 265 00d2 C0B2     		uxtb	r0, r0
 266 00d4 04B0     		add	sp, sp, #16
 267              		.cfi_def_cfa_offset 24
 268              		@ sp needed
 269 00d6 BDE8F081 		pop	{r4, r5, r6, r7, r8, pc}
 270              	.LVL50:
 271              	.L12:
 272 00da 00BF     		.align	2
 273              	.L11:
 274 00dc 00000000 		.word	.LANCHOR0
 275 00e0 00007A44 		.word	1148846080
 276 00e4 00000000 		.word	.LANCHOR1
 277 00e8 00000000 		.word	.LC0
 278 00ec 0C000000 		.word	.LC1
 279 00f0 18000000 		.word	.LC2
 280 00f4 00007F43 		.word	1132396544
 281              		.cfi_endproc
 282              	.LFE65:
 283              		.size	PID_Control, .-PID_Control
 284              		.global	__aeabi_f2d
 285              		.global	__aeabi_dmul
 286              		.global	__aeabi_d2iz
 287              		.section	.text.inter,"ax",%progbits
 288              		.align	2
 289              		.global	inter
 290              		.thumb
 291              		.thumb_func
 292              		.type	inter, %function
 293              	inter:
 294              	.LFB67:
  85:main.c        ****     uint16 count;
ARM GAS  C:\Users\ryant\AppData\Local\Temp\ccCmfcIi.s 			page 9


 295              		.loc 1 85 0
 296              		.cfi_startproc
 297              		@ args = 0, pretend = 0, frame = 64
 298              		@ frame_needed = 0, uses_anonymous_args = 0
 299 0000 30B5     		push	{r4, r5, lr}
 300              		.cfi_def_cfa_offset 12
 301              		.cfi_offset 4, -12
 302              		.cfi_offset 5, -8
 303              		.cfi_offset 14, -4
 304 0002 91B0     		sub	sp, sp, #68
 305              		.cfi_def_cfa_offset 80
  94:main.c        ****         
 306              		.loc 1 94 0
 307 0004 204B     		ldr	r3, .L17
 308 0006 DB68     		ldr	r3, [r3, #12]
 309 0008 012B     		cmp	r3, #1
 310 000a 31D1     		bne	.L15
  97:main.c        ****     count = 65535 - count;
 311              		.loc 1 97 0
 312 000c FFF7FEFF 		bl	Counter_ReadCapture
 313              	.LVL51:
  98:main.c        ****     elapsed_time_micro_s = count * MICRO_S_PER_COUNT;
 314              		.loc 1 98 0
 315 0010 C043     		mvns	r0, r0
 316              	.LVL52:
 317 0012 84B2     		uxth	r4, r0
 318              	.LVL53:
 100:main.c        ****     speed = (float) CIRCUMFERENCE_FT / (elapsed_time_s * (float) MAGNETS_PER_REV);
 319              		.loc 1 100 0
 320 0014 6420     		movs	r0, #100
 321 0016 00FB04F0 		mul	r0, r0, r4
 322              	.LVL54:
 323 001a FFF7FEFF 		bl	__aeabi_i2f
 324              	.LVL55:
 325 001e 1B49     		ldr	r1, .L17+4
 326 0020 FFF7FEFF 		bl	__aeabi_fdiv
 327              	.LVL56:
 101:main.c        ****     pwm_value = PID_Control(speed, count);
 328              		.loc 1 101 0
 329 0024 1A49     		ldr	r1, .L17+8
 330 0026 FFF7FEFF 		bl	__aeabi_fmul
 331              	.LVL57:
 332 002a 0146     		mov	r1, r0
 333 002c 1948     		ldr	r0, .L17+12
 334 002e FFF7FEFF 		bl	__aeabi_fdiv
 335              	.LVL58:
 336 0032 0546     		mov	r5, r0
 337              	.LVL59:
 102:main.c        ****     
 338              		.loc 1 102 0
 339 0034 2146     		mov	r1, r4
 340 0036 FFF7FEFF 		bl	PID_Control
 341              	.LVL60:
 342 003a 0446     		mov	r4, r0
 343              	.LVL61:
 105:main.c        ****     XBEE_PutString(buf);
 344              		.loc 1 105 0
ARM GAS  C:\Users\ryant\AppData\Local\Temp\ccCmfcIi.s 			page 10


 345 003c 2846     		mov	r0, r5
 346 003e FFF7FEFF 		bl	__aeabi_f2d
 347              	.LVL62:
 348 0042 0022     		movs	r2, #0
 349 0044 144B     		ldr	r3, .L17+16
 350 0046 FFF7FEFF 		bl	__aeabi_dmul
 351              	.LVL63:
 352 004a FFF7FEFF 		bl	__aeabi_d2iz
 353              	.LVL64:
 354 004e 0246     		mov	r2, r0
 355 0050 1249     		ldr	r1, .L17+20
 356 0052 6846     		mov	r0, sp
 357 0054 FFF7FEFF 		bl	sprintf
 358              	.LVL65:
 106:main.c        ****     sprintf(buf, "PWM_VALUE: %d\n\r", pwm_value);
 359              		.loc 1 106 0
 360 0058 6846     		mov	r0, sp
 361 005a FFF7FEFF 		bl	XBEE_PutString
 362              	.LVL66:
 107:main.c        ****     XBEE_PutString(buf);
 363              		.loc 1 107 0
 364 005e 2246     		mov	r2, r4
 365 0060 0F49     		ldr	r1, .L17+24
 366 0062 6846     		mov	r0, sp
 367 0064 FFF7FEFF 		bl	sprintf
 368              	.LVL67:
 108:main.c        ****     /*---------------------*/
 369              		.loc 1 108 0
 370 0068 6846     		mov	r0, sp
 371 006a FFF7FEFF 		bl	XBEE_PutString
 372              	.LVL68:
 373 006e 00E0     		b	.L14
 374              	.LVL69:
 375              	.L15:
 113:main.c        ****     }
 376              		.loc 1 113 0
 377 0070 0024     		movs	r4, #0
 378              	.L14:
 379              	.LVL70:
 117:main.c        ****     
 380              		.loc 1 117 0
 381 0072 2046     		mov	r0, r4
 382 0074 FFF7FEFF 		bl	PWM_Control
 383              	.LVL71:
 119:main.c        ****     Counter_Reset_Write(0);
 384              		.loc 1 119 0
 385 0078 0120     		movs	r0, #1
 386 007a FFF7FEFF 		bl	Counter_Reset_Write
 387              	.LVL72:
 120:main.c        **** }
 388              		.loc 1 120 0
 389 007e 0020     		movs	r0, #0
 390 0080 FFF7FEFF 		bl	Counter_Reset_Write
 391              	.LVL73:
 121:main.c        **** 
 392              		.loc 1 121 0
 393 0084 11B0     		add	sp, sp, #68
ARM GAS  C:\Users\ryant\AppData\Local\Temp\ccCmfcIi.s 			page 11


 394              		.cfi_def_cfa_offset 12
 395              		@ sp needed
 396 0086 30BD     		pop	{r4, r5, pc}
 397              	.LVL74:
 398              	.L18:
 399              		.align	2
 400              	.L17:
 401 0088 00000000 		.word	.LANCHOR1
 402 008c 00247449 		.word	1232348160
 403 0090 0000A040 		.word	1084227584
 404 0094 ABCF253F 		.word	1059442603
 405 0098 00408F40 		.word	1083129856
 406 009c 28000000 		.word	.LC3
 407 00a0 34000000 		.word	.LC4
 408              		.cfi_endproc
 409              	.LFE67:
 410              		.size	inter, .-inter
 411              		.section	.text.LCD_Reset,"ax",%progbits
 412              		.align	2
 413              		.global	LCD_Reset
 414              		.thumb
 415              		.thumb_func
 416              		.type	LCD_Reset, %function
 417              	LCD_Reset:
 418              	.LFB66:
  80:main.c        ****     LCD_ClearDisplay();
 419              		.loc 1 80 0
 420              		.cfi_startproc
 421              		@ args = 0, pretend = 0, frame = 0
 422              		@ frame_needed = 0, uses_anonymous_args = 0
 423 0000 08B5     		push	{r3, lr}
 424              		.cfi_def_cfa_offset 8
 425              		.cfi_offset 3, -8
 426              		.cfi_offset 14, -4
  81:main.c        ****     LCD_Position(0,0);
 427              		.loc 1 81 0
 428 0002 0120     		movs	r0, #1
 429 0004 FFF7FEFF 		bl	LCD_WriteControl
 430              	.LVL75:
  82:main.c        **** }
 431              		.loc 1 82 0
 432 0008 0021     		movs	r1, #0
 433 000a 0846     		mov	r0, r1
 434 000c FFF7FEFF 		bl	LCD_Position
 435              	.LVL76:
 436 0010 08BD     		pop	{r3, pc}
 437              		.cfi_endproc
 438              	.LFE66:
 439              		.size	LCD_Reset, .-LCD_Reset
 440 0012 00BF     		.section	.text.main,"ax",%progbits
 441              		.align	2
 442              		.global	main
 443              		.thumb
 444              		.thumb_func
 445              		.type	main, %function
 446              	main:
 447              	.LFB69:
ARM GAS  C:\Users\ryant\AppData\Local\Temp\ccCmfcIi.s 			page 12


 139:main.c        **** 
 140:main.c        **** int main(void)
 141:main.c        **** {
 448              		.loc 1 141 0
 449              		.cfi_startproc
 450              		@ args = 0, pretend = 0, frame = 192
 451              		@ frame_needed = 0, uses_anonymous_args = 0
 452 0000 70B5     		push	{r4, r5, r6, lr}
 453              		.cfi_def_cfa_offset 16
 454              		.cfi_offset 4, -16
 455              		.cfi_offset 5, -12
 456              		.cfi_offset 6, -8
 457              		.cfi_offset 14, -4
 458 0002 B2B0     		sub	sp, sp, #200
 459              		.cfi_def_cfa_offset 216
 460              	.LVL77:
 142:main.c        ****     // Local variable declarations
 143:main.c        ****     uint8 readChar;
 144:main.c        ****     char readBuf[BUF_SIZE];
 145:main.c        ****     char outputBuf[BUF_SIZE];
 146:main.c        ****     uint8 bufIndex = 0;
 147:main.c        ****     int numIndex = 0;
 148:main.c        ****     char numBuf[BUF_SIZE];
 149:main.c        ****     
 150:main.c        ****     // Start Components
 151:main.c        ****     CyGlobalIntEnable; 
 461              		.loc 1 151 0
 462              		.syntax unified
 463              	@ 151 "main.c" 1
 464 0004 62B6     		CPSIE   i
 465              	@ 0 "" 2
 152:main.c        ****     XBEE_Start();
 466              		.loc 1 152 0
 467              		.thumb
 468              		.syntax unified
 469 0006 FFF7FEFF 		bl	XBEE_Start
 470              	.LVL78:
 153:main.c        ****     LCD_Start();
 471              		.loc 1 153 0
 472 000a FFF7FEFF 		bl	LCD_Start
 473              	.LVL79:
 154:main.c        ****     Hall_Interrupt_Start();
 474              		.loc 1 154 0
 475 000e FFF7FEFF 		bl	Hall_Interrupt_Start
 476              	.LVL80:
 155:main.c        ****     Hall_Interrupt_SetVector(inter);
 477              		.loc 1 155 0
 478 0012 8048     		ldr	r0, .L38
 479 0014 FFF7FEFF 		bl	Hall_Interrupt_SetVector
 480              	.LVL81:
 156:main.c        ****     Counter_Start();
 481              		.loc 1 156 0
 482 0018 FFF7FEFF 		bl	Counter_Start
 483              	.LVL82:
 157:main.c        ****     Counter_Interrupt_Start();
 484              		.loc 1 157 0
 485 001c FFF7FEFF 		bl	Counter_Interrupt_Start
ARM GAS  C:\Users\ryant\AppData\Local\Temp\ccCmfcIi.s 			page 13


 486              	.LVL83:
 158:main.c        ****     PWM_Motor_Start();
 487              		.loc 1 158 0
 488 0020 FFF7FEFF 		bl	PWM_Motor_Start
 489              	.LVL84:
 159:main.c        ****     
 160:main.c        ****     
 161:main.c        ****     XBEE_PutString("Connection success\n\r");
 490              		.loc 1 161 0
 491 0024 7C48     		ldr	r0, .L38+4
 492 0026 FFF7FEFF 		bl	XBEE_PutString
 493              	.LVL85:
 162:main.c        ****     LCD_PrintString("Initialized.");
 494              		.loc 1 162 0
 495 002a 7C48     		ldr	r0, .L38+8
 496 002c FFF7FEFF 		bl	LCD_PrintString
 497              	.LVL86:
 498              	.L33:
 141:main.c        ****     // Local variable declarations
 499              		.loc 1 141 0
 500 0030 0024     		movs	r4, #0
 501              	.LVL87:
 502              	.L32:
 163:main.c        ****     
 164:main.c        ****     
 165:main.c        ****     for(;;)
 166:main.c        ****     {
 167:main.c        ****         readChar = XBEE_GetChar();
 503              		.loc 1 167 0
 504 0032 FFF7FEFF 		bl	XBEE_GetChar
 505              	.LVL88:
 168:main.c        **** 
 169:main.c        ****         
 170:main.c        ****         /*------------------Input Reading------------------*/
 171:main.c        ****         /* Read a char */
 172:main.c        ****         if (readChar > 0u) {
 506              		.loc 1 172 0
 507 0036 0546     		mov	r5, r0
 508 0038 0028     		cmp	r0, #0
 509 003a 00F0DE80 		beq	.L22
 173:main.c        ****             LCD_Reset();
 510              		.loc 1 173 0
 511 003e FFF7FEFF 		bl	LCD_Reset
 512              	.LVL89:
 174:main.c        ****             LCD_PutChar(readChar);
 513              		.loc 1 174 0
 514 0042 2846     		mov	r0, r5
 515 0044 FFF7FEFF 		bl	LCD_PutChar
 516              	.LVL90:
 175:main.c        ****             readBuf[bufIndex] = readChar;
 517              		.loc 1 175 0
 518 0048 32AB     		add	r3, sp, #200
 519 004a 2344     		add	r3, r3, r4
 520 004c 03F8405C 		strb	r5, [r3, #-64]
 176:main.c        ****             bufIndex++;
 521              		.loc 1 176 0
 522 0050 0134     		adds	r4, r4, #1
ARM GAS  C:\Users\ryant\AppData\Local\Temp\ccCmfcIi.s 			page 14


 523              	.LVL91:
 524 0052 E4B2     		uxtb	r4, r4
 525              	.LVL92:
 177:main.c        ****             
 178:main.c        ****             /* Handle ENTER pressed */
 179:main.c        ****             if (readChar == '\r') {
 526              		.loc 1 179 0
 527 0054 0D2D     		cmp	r5, #13
 528 0056 40F0D080 		bne	.L22
 180:main.c        ****                 LCD_Reset();
 529              		.loc 1 180 0
 530 005a FFF7FEFF 		bl	LCD_Reset
 531              	.LVL93:
 181:main.c        ****                 LCD_PrintString("Value entered");
 532              		.loc 1 181 0
 533 005e 7048     		ldr	r0, .L38+12
 534 0060 FFF7FEFF 		bl	LCD_PrintString
 535              	.LVL94:
 182:main.c        ****                    
 183:main.c        ****                 switch (readBuf[0]) {
 536              		.loc 1 183 0
 537 0064 9DF88830 		ldrb	r3, [sp, #136]	@ zero_extendqisi2
 538 0068 643B     		subs	r3, r3, #100
 539 006a 102B     		cmp	r3, #16
 540 006c 00F2B980 		bhi	.L23
 541 0070 DFE803F0 		tbb	[pc, r3]
 542              	.L25:
 543 0074 7F       		.byte	(.L24-.L25)/2
 544 0075 B7       		.byte	(.L23-.L25)/2
 545 0076 B7       		.byte	(.L23-.L25)/2
 546 0077 21       		.byte	(.L26-.L25)/2
 547 0078 B7       		.byte	(.L23-.L25)/2
 548 0079 69       		.byte	(.L27-.L25)/2
 549 007a B7       		.byte	(.L23-.L25)/2
 550 007b 95       		.byte	(.L28-.L25)/2
 551 007c B7       		.byte	(.L23-.L25)/2
 552 007d B7       		.byte	(.L23-.L25)/2
 553 007e B7       		.byte	(.L23-.L25)/2
 554 007f B7       		.byte	(.L23-.L25)/2
 555 0080 53       		.byte	(.L29-.L25)/2
 556 0081 B7       		.byte	(.L23-.L25)/2
 557 0082 B7       		.byte	(.L23-.L25)/2
 558 0083 3C       		.byte	(.L30-.L25)/2
 559 0084 09       		.byte	(.L31-.L25)/2
 560 0085 00       		.p2align 1
 561              	.L31:
 184:main.c        ****                     
 185:main.c        ****                     case 't':
 186:main.c        ****                         if (RUN_STATE == 0) {
 562              		.loc 1 186 0
 563 0086 674B     		ldr	r3, .L38+16
 564 0088 DB68     		ldr	r3, [r3, #12]
 565 008a 002B     		cmp	r3, #0
 566 008c 40F0B080 		bne	.L34
 187:main.c        ****                             TARGET_SPEED = PID_SetVal(numBuf, numIndex, readBuf);
 567              		.loc 1 187 0
 568 0090 22AA     		add	r2, sp, #136
ARM GAS  C:\Users\ryant\AppData\Local\Temp\ccCmfcIi.s 			page 15


 569 0092 0021     		movs	r1, #0
 570 0094 02A8     		add	r0, sp, #8
 571 0096 FFF7FEFF 		bl	PID_SetVal
 572              	.LVL95:
 573 009a 634B     		ldr	r3, .L38+20
 574 009c 1860     		str	r0, [r3]	@ float
 188:main.c        ****                             sprintf(outputBuf, "Target speed set to %i\n\r", (int)TARGET_SPEED);
 575              		.loc 1 188 0
 576 009e FFF7FEFF 		bl	__aeabi_f2iz
 577              	.LVL96:
 578 00a2 0246     		mov	r2, r0
 579 00a4 6149     		ldr	r1, .L38+24
 580 00a6 12A8     		add	r0, sp, #72
 581 00a8 FFF7FEFF 		bl	sprintf
 582              	.LVL97:
 189:main.c        ****                             XBEE_PutString(outputBuf);
 583              		.loc 1 189 0
 584 00ac 12A8     		add	r0, sp, #72
 585 00ae FFF7FEFF 		bl	XBEE_PutString
 586              	.LVL98:
 190:main.c        ****                         }
 191:main.c        ****                         break;
 192:main.c        ****                    
 193:main.c        ****                     case 'g': 
 194:main.c        ****                         if (RUN_STATE == 0) {
 195:main.c        ****                             RUN_STATE = 1;
 196:main.c        ****                             LCD_Reset();
 197:main.c        ****                             LCD_PrintString("----GO----");
 198:main.c        ****                             XBEE_PutString("----GO----\n\r");
 199:main.c        ****                             PWM_Control(START_PWM);
 200:main.c        ****                             Counter_Reset_Write(1);
 201:main.c        ****                             Counter_Reset_Write(0);
 202:main.c        ****                         }
 203:main.c        ****                         break;
 204:main.c        ****                         
 205:main.c        ****                     case 's':
 206:main.c        ****                         if (RUN_STATE == 1) {
 207:main.c        ****                             RUN_STATE = 0;
 208:main.c        ****                             LCD_Reset();
 209:main.c        ****                             LCD_PrintString("----STOP----");
 210:main.c        ****                             PWM_Control(STOP_PWM);
 211:main.c        ****                             XBEE_PutString("----STOP----\n\r");
 212:main.c        ****                             prev_error = 0;
 213:main.c        ****                             prev_i_term = 0;
 214:main.c        ****                         }
 215:main.c        ****                         break;
 216:main.c        ****                         
 217:main.c        ****                     case 'p':
 218:main.c        ****                         LCD_Reset();
 219:main.c        ****                         kp = PID_SetVal(numBuf, numIndex,readBuf);
 220:main.c        ****                         sprintf(outputBuf, "kp=%s\n\r", numBuf);
 221:main.c        ****                         XBEE_PutString(outputBuf);
 222:main.c        ****                         LCD_PrintString(outputBuf);
 223:main.c        ****                         break;
 224:main.c        ****                        
 225:main.c        ****                     case 'i': 
 226:main.c        ****                         LCD_Reset();
ARM GAS  C:\Users\ryant\AppData\Local\Temp\ccCmfcIi.s 			page 16


 227:main.c        ****                         ki = PID_SetVal(numBuf, numIndex,readBuf);
 228:main.c        ****                         sprintf(outputBuf, "ki=%s\n\r", numBuf);
 229:main.c        ****                         XBEE_PutString(outputBuf);
 230:main.c        ****                         LCD_PrintString(outputBuf);
 231:main.c        ****                         break;
 232:main.c        ****                     
 233:main.c        ****                     case 'd': 
 234:main.c        ****                         LCD_Reset();
 235:main.c        ****                         kd = PID_SetVal(numBuf, numIndex,readBuf);
 236:main.c        ****                         sprintf(outputBuf, "kd=%s\n\r", numBuf);
 237:main.c        ****                         XBEE_PutString(outputBuf);
 238:main.c        ****                         LCD_PrintString(outputBuf);
 239:main.c        ****                         break;
 240:main.c        ****                         
 241:main.c        ****                     case 'k':
 242:main.c        ****                         LCD_Reset();
 243:main.c        ****                         sprintf(outputBuf, "kp=%i\n\rki=%i\n\rkd=%i\n\rtarget_speed=%i\n\r", (int)k
 244:main.c        ****                         XBEE_PutString(outputBuf);
 245:main.c        ****                         LCD_PrintString(outputBuf);
 246:main.c        ****                         break;
 247:main.c        ****                        
 248:main.c        ****                     default:
 249:main.c        ****                         LCD_Reset();
 250:main.c        ****                         LCD_PrintString("Invalid input.\n\r");
 251:main.c        ****                         break;
 252:main.c        ****                         
 253:main.c        ****                 }
 254:main.c        ****                 bufIndex = 0;
 587              		.loc 1 254 0
 588 00b2 0024     		movs	r4, #0
 589              	.LVL99:
 590 00b4 A1E0     		b	.L22
 591              	.LVL100:
 592              	.L26:
 194:main.c        ****                             RUN_STATE = 1;
 593              		.loc 1 194 0
 594 00b6 5B4B     		ldr	r3, .L38+16
 595 00b8 DB68     		ldr	r3, [r3, #12]
 596 00ba 002B     		cmp	r3, #0
 597 00bc 40F09A80 		bne	.L35
 195:main.c        ****                             LCD_Reset();
 598              		.loc 1 195 0
 599 00c0 0124     		movs	r4, #1
 600              	.LVL101:
 601 00c2 584B     		ldr	r3, .L38+16
 602 00c4 DC60     		str	r4, [r3, #12]
 196:main.c        ****                             LCD_PrintString("----GO----");
 603              		.loc 1 196 0
 604 00c6 FFF7FEFF 		bl	LCD_Reset
 605              	.LVL102:
 197:main.c        ****                             XBEE_PutString("----GO----\n\r");
 606              		.loc 1 197 0
 607 00ca 5948     		ldr	r0, .L38+28
 608 00cc FFF7FEFF 		bl	LCD_PrintString
 609              	.LVL103:
 198:main.c        ****                             PWM_Control(START_PWM);
 610              		.loc 1 198 0
ARM GAS  C:\Users\ryant\AppData\Local\Temp\ccCmfcIi.s 			page 17


 611 00d0 5848     		ldr	r0, .L38+32
 612 00d2 FFF7FEFF 		bl	XBEE_PutString
 613              	.LVL104:
 199:main.c        ****                             Counter_Reset_Write(1);
 614              		.loc 1 199 0
 615 00d6 3220     		movs	r0, #50
 616 00d8 FFF7FEFF 		bl	PWM_Control
 617              	.LVL105:
 200:main.c        ****                             Counter_Reset_Write(0);
 618              		.loc 1 200 0
 619 00dc 2046     		mov	r0, r4
 620 00de FFF7FEFF 		bl	Counter_Reset_Write
 621              	.LVL106:
 201:main.c        ****                         }
 622              		.loc 1 201 0
 623 00e2 0020     		movs	r0, #0
 624 00e4 FFF7FEFF 		bl	Counter_Reset_Write
 625              	.LVL107:
 626              		.loc 1 254 0
 627 00e8 0024     		movs	r4, #0
 628 00ea 86E0     		b	.L22
 629              	.LVL108:
 630              	.L30:
 206:main.c        ****                             RUN_STATE = 0;
 631              		.loc 1 206 0
 632 00ec 4D4B     		ldr	r3, .L38+16
 633 00ee DB68     		ldr	r3, [r3, #12]
 634 00f0 012B     		cmp	r3, #1
 635 00f2 40F08180 		bne	.L36
 207:main.c        ****                             LCD_Reset();
 636              		.loc 1 207 0
 637 00f6 4B4D     		ldr	r5, .L38+16
 638 00f8 0024     		movs	r4, #0
 639              	.LVL109:
 640 00fa EC60     		str	r4, [r5, #12]
 208:main.c        ****                             LCD_PrintString("----STOP----");
 641              		.loc 1 208 0
 642 00fc FFF7FEFF 		bl	LCD_Reset
 643              	.LVL110:
 209:main.c        ****                             PWM_Control(STOP_PWM);
 644              		.loc 1 209 0
 645 0100 4D48     		ldr	r0, .L38+36
 646 0102 FFF7FEFF 		bl	LCD_PrintString
 647              	.LVL111:
 210:main.c        ****                             XBEE_PutString("----STOP----\n\r");
 648              		.loc 1 210 0
 649 0106 2046     		mov	r0, r4
 650 0108 FFF7FEFF 		bl	PWM_Control
 651              	.LVL112:
 211:main.c        ****                             prev_error = 0;
 652              		.loc 1 211 0
 653 010c 4B48     		ldr	r0, .L38+40
 654 010e FFF7FEFF 		bl	XBEE_PutString
 655              	.LVL113:
 212:main.c        ****                             prev_i_term = 0;
 656              		.loc 1 212 0
 657 0112 0023     		movs	r3, #0
ARM GAS  C:\Users\ryant\AppData\Local\Temp\ccCmfcIi.s 			page 18


 658 0114 6B60     		str	r3, [r5, #4]	@ float
 213:main.c        ****                         }
 659              		.loc 1 213 0
 660 0116 2B60     		str	r3, [r5]	@ float
 661 0118 6FE0     		b	.L22
 662              	.LVL114:
 663              	.L29:
 218:main.c        ****                         kp = PID_SetVal(numBuf, numIndex,readBuf);
 664              		.loc 1 218 0
 665 011a FFF7FEFF 		bl	LCD_Reset
 666              	.LVL115:
 219:main.c        ****                         sprintf(outputBuf, "kp=%s\n\r", numBuf);
 667              		.loc 1 219 0
 668 011e 22AA     		add	r2, sp, #136
 669 0120 0021     		movs	r1, #0
 670 0122 02A8     		add	r0, sp, #8
 671 0124 FFF7FEFF 		bl	PID_SetVal
 672              	.LVL116:
 673 0128 3F4B     		ldr	r3, .L38+20
 674 012a 5860     		str	r0, [r3, #4]	@ float
 220:main.c        ****                         XBEE_PutString(outputBuf);
 675              		.loc 1 220 0
 676 012c 02AA     		add	r2, sp, #8
 677 012e 4449     		ldr	r1, .L38+44
 678 0130 12A8     		add	r0, sp, #72
 679 0132 FFF7FEFF 		bl	sprintf
 680              	.LVL117:
 221:main.c        ****                         LCD_PrintString(outputBuf);
 681              		.loc 1 221 0
 682 0136 12A8     		add	r0, sp, #72
 683 0138 FFF7FEFF 		bl	XBEE_PutString
 684              	.LVL118:
 222:main.c        ****                         break;
 685              		.loc 1 222 0
 686 013c 12A8     		add	r0, sp, #72
 687 013e FFF7FEFF 		bl	LCD_PrintString
 688              	.LVL119:
 689              		.loc 1 254 0
 690 0142 0024     		movs	r4, #0
 691              	.LVL120:
 223:main.c        ****                        
 692              		.loc 1 223 0
 693 0144 59E0     		b	.L22
 694              	.LVL121:
 695              	.L27:
 226:main.c        ****                         ki = PID_SetVal(numBuf, numIndex,readBuf);
 696              		.loc 1 226 0
 697 0146 FFF7FEFF 		bl	LCD_Reset
 698              	.LVL122:
 227:main.c        ****                         sprintf(outputBuf, "ki=%s\n\r", numBuf);
 699              		.loc 1 227 0
 700 014a 22AA     		add	r2, sp, #136
 701 014c 0021     		movs	r1, #0
 702 014e 02A8     		add	r0, sp, #8
 703 0150 FFF7FEFF 		bl	PID_SetVal
 704              	.LVL123:
 705 0154 344B     		ldr	r3, .L38+20
ARM GAS  C:\Users\ryant\AppData\Local\Temp\ccCmfcIi.s 			page 19


 706 0156 9860     		str	r0, [r3, #8]	@ float
 228:main.c        ****                         XBEE_PutString(outputBuf);
 707              		.loc 1 228 0
 708 0158 02AA     		add	r2, sp, #8
 709 015a 3A49     		ldr	r1, .L38+48
 710 015c 12A8     		add	r0, sp, #72
 711 015e FFF7FEFF 		bl	sprintf
 712              	.LVL124:
 229:main.c        ****                         LCD_PrintString(outputBuf);
 713              		.loc 1 229 0
 714 0162 12A8     		add	r0, sp, #72
 715 0164 FFF7FEFF 		bl	XBEE_PutString
 716              	.LVL125:
 230:main.c        ****                         break;
 717              		.loc 1 230 0
 718 0168 12A8     		add	r0, sp, #72
 719 016a FFF7FEFF 		bl	LCD_PrintString
 720              	.LVL126:
 721              		.loc 1 254 0
 722 016e 0024     		movs	r4, #0
 723              	.LVL127:
 231:main.c        ****                     
 724              		.loc 1 231 0
 725 0170 43E0     		b	.L22
 726              	.LVL128:
 727              	.L24:
 234:main.c        ****                         kd = PID_SetVal(numBuf, numIndex,readBuf);
 728              		.loc 1 234 0
 729 0172 FFF7FEFF 		bl	LCD_Reset
 730              	.LVL129:
 235:main.c        ****                         sprintf(outputBuf, "kd=%s\n\r", numBuf);
 731              		.loc 1 235 0
 732 0176 22AA     		add	r2, sp, #136
 733 0178 0021     		movs	r1, #0
 734 017a 02A8     		add	r0, sp, #8
 735 017c FFF7FEFF 		bl	PID_SetVal
 736              	.LVL130:
 737 0180 284B     		ldr	r3, .L38+16
 738 0182 9860     		str	r0, [r3, #8]	@ float
 236:main.c        ****                         XBEE_PutString(outputBuf);
 739              		.loc 1 236 0
 740 0184 02AA     		add	r2, sp, #8
 741 0186 3049     		ldr	r1, .L38+52
 742 0188 12A8     		add	r0, sp, #72
 743 018a FFF7FEFF 		bl	sprintf
 744              	.LVL131:
 237:main.c        ****                         LCD_PrintString(outputBuf);
 745              		.loc 1 237 0
 746 018e 12A8     		add	r0, sp, #72
 747 0190 FFF7FEFF 		bl	XBEE_PutString
 748              	.LVL132:
 238:main.c        ****                         break;
 749              		.loc 1 238 0
 750 0194 12A8     		add	r0, sp, #72
 751 0196 FFF7FEFF 		bl	LCD_PrintString
 752              	.LVL133:
 753              		.loc 1 254 0
ARM GAS  C:\Users\ryant\AppData\Local\Temp\ccCmfcIi.s 			page 20


 754 019a 0024     		movs	r4, #0
 755              	.LVL134:
 239:main.c        ****                         
 756              		.loc 1 239 0
 757 019c 2DE0     		b	.L22
 758              	.LVL135:
 759              	.L28:
 242:main.c        ****                         sprintf(outputBuf, "kp=%i\n\rki=%i\n\rkd=%i\n\rtarget_speed=%i\n\r", (int)k
 760              		.loc 1 242 0
 761 019e FFF7FEFF 		bl	LCD_Reset
 762              	.LVL136:
 243:main.c        ****                         XBEE_PutString(outputBuf);
 763              		.loc 1 243 0
 764 01a2 214C     		ldr	r4, .L38+20
 765              	.LVL137:
 766 01a4 A068     		ldr	r0, [r4, #8]	@ float
 767 01a6 FFF7FEFF 		bl	__aeabi_f2iz
 768              	.LVL138:
 769 01aa 0646     		mov	r6, r0
 770 01ac 6068     		ldr	r0, [r4, #4]	@ float
 771 01ae FFF7FEFF 		bl	__aeabi_f2iz
 772              	.LVL139:
 773 01b2 0546     		mov	r5, r0
 774 01b4 2068     		ldr	r0, [r4]	@ float
 775 01b6 FFF7FEFF 		bl	__aeabi_f2iz
 776              	.LVL140:
 777 01ba 0190     		str	r0, [sp, #4]
 778 01bc 194B     		ldr	r3, .L38+16
 779 01be 9868     		ldr	r0, [r3, #8]	@ float
 780 01c0 FFF7FEFF 		bl	__aeabi_f2iz
 781              	.LVL141:
 782 01c4 0090     		str	r0, [sp]
 783 01c6 3346     		mov	r3, r6
 784 01c8 2A46     		mov	r2, r5
 785 01ca 2049     		ldr	r1, .L38+56
 786 01cc 12A8     		add	r0, sp, #72
 787 01ce FFF7FEFF 		bl	sprintf
 788              	.LVL142:
 244:main.c        ****                         LCD_PrintString(outputBuf);
 789              		.loc 1 244 0
 790 01d2 12A8     		add	r0, sp, #72
 791 01d4 FFF7FEFF 		bl	XBEE_PutString
 792              	.LVL143:
 245:main.c        ****                         break;
 793              		.loc 1 245 0
 794 01d8 12A8     		add	r0, sp, #72
 795 01da FFF7FEFF 		bl	LCD_PrintString
 796              	.LVL144:
 797              		.loc 1 254 0
 798 01de 0024     		movs	r4, #0
 246:main.c        ****                        
 799              		.loc 1 246 0
 800 01e0 0BE0     		b	.L22
 801              	.LVL145:
 802              	.L23:
 249:main.c        ****                         LCD_PrintString("Invalid input.\n\r");
 803              		.loc 1 249 0
ARM GAS  C:\Users\ryant\AppData\Local\Temp\ccCmfcIi.s 			page 21


 804 01e2 FFF7FEFF 		bl	LCD_Reset
 805              	.LVL146:
 250:main.c        ****                         break;
 806              		.loc 1 250 0
 807 01e6 1A48     		ldr	r0, .L38+60
 808 01e8 FFF7FEFF 		bl	LCD_PrintString
 809              	.LVL147:
 810              		.loc 1 254 0
 811 01ec 0024     		movs	r4, #0
 812              	.LVL148:
 251:main.c        ****                         
 813              		.loc 1 251 0
 814 01ee 04E0     		b	.L22
 815              	.LVL149:
 816              	.L34:
 817              		.loc 1 254 0
 818 01f0 0024     		movs	r4, #0
 819              	.LVL150:
 820 01f2 02E0     		b	.L22
 821              	.LVL151:
 822              	.L35:
 823 01f4 0024     		movs	r4, #0
 824              	.LVL152:
 825 01f6 00E0     		b	.L22
 826              	.LVL153:
 827              	.L36:
 828 01f8 0024     		movs	r4, #0
 829              	.LVL154:
 830              	.L22:
 255:main.c        ****             }
 256:main.c        ****             
 257:main.c        ****         }
 258:main.c        ****         
 259:main.c        ****         /* Clear the BUF */
 260:main.c        ****         if (bufIndex == BUF_SIZE) {
 831              		.loc 1 260 0
 832 01fa 402C     		cmp	r4, #64
 833 01fc 7FF419AF 		bne	.L32
 261:main.c        ****             LCD_Reset();
 834              		.loc 1 261 0
 835 0200 FFF7FEFF 		bl	LCD_Reset
 836              	.LVL155:
 262:main.c        ****             XBEE_PutString(readBuf);
 837              		.loc 1 262 0
 838 0204 22A8     		add	r0, sp, #136
 839 0206 FFF7FEFF 		bl	XBEE_PutString
 840              	.LVL156:
 263:main.c        ****             LCD_PrintString(readBuf);
 841              		.loc 1 263 0
 842 020a 22A8     		add	r0, sp, #136
 843 020c FFF7FEFF 		bl	LCD_PrintString
 844              	.LVL157:
 845 0210 0EE7     		b	.L33
 846              	.L39:
 847 0212 00BF     		.align	2
 848              	.L38:
 849 0214 00000000 		.word	inter
ARM GAS  C:\Users\ryant\AppData\Local\Temp\ccCmfcIi.s 			page 22


 850 0218 44000000 		.word	.LC5
 851 021c 5C000000 		.word	.LC6
 852 0220 6C000000 		.word	.LC7
 853 0224 00000000 		.word	.LANCHOR1
 854 0228 00000000 		.word	.LANCHOR0
 855 022c 7C000000 		.word	.LC8
 856 0230 98000000 		.word	.LC9
 857 0234 A4000000 		.word	.LC10
 858 0238 B4000000 		.word	.LC11
 859 023c C4000000 		.word	.LC12
 860 0240 D4000000 		.word	.LC13
 861 0244 DC000000 		.word	.LC14
 862 0248 E4000000 		.word	.LC15
 863 024c EC000000 		.word	.LC16
 864 0250 14010000 		.word	.LC17
 865              		.cfi_endproc
 866              	.LFE69:
 867              		.size	main, .-main
 868              		.global	prev_i_term
 869              		.global	prev_error
 870              		.global	kd
 871              		.global	ki
 872              		.global	kp
 873              		.global	TARGET_SPEED
 874              		.global	RUN_STATE
 875              		.data
 876              		.align	2
 877              		.set	.LANCHOR0,. + 0
 878              		.type	TARGET_SPEED, %object
 879              		.size	TARGET_SPEED, 4
 880              	TARGET_SPEED:
 881 0000 CDCC9C40 		.word	1084017869
 882              		.type	kp, %object
 883              		.size	kp, 4
 884              	kp:
 885 0004 0000BE42 		.word	1119748096
 886              		.type	ki, %object
 887              		.size	ki, 4
 888              	ki:
 889 0008 0000A041 		.word	1101004800
 890              		.section	.rodata.str1.4,"aMS",%progbits,1
 891              		.align	2
 892              	.LC0:
 893 0000 505F7465 		.ascii	"P_term: %i \000"
 893      726D3A20 
 893      25692000 
 894              	.LC1:
 895 000c 495F7465 		.ascii	"I_term: %i \000"
 895      726D3A20 
 895      25692000 
 896              	.LC2:
 897 0018 445F7465 		.ascii	"D_term: %i \012\015\000"
 897      726D3A20 
 897      2569200A 
 897      0D00
 898 0026 0000     		.space	2
 899              	.LC3:
ARM GAS  C:\Users\ryant\AppData\Local\Temp\ccCmfcIi.s 			page 23


 900 0028 53706565 		.ascii	"Speed: %d\012\015\000"
 900      643A2025 
 900      640A0D00 
 901              	.LC4:
 902 0034 50574D5F 		.ascii	"PWM_VALUE: %d\012\015\000"
 902      56414C55 
 902      453A2025 
 902      640A0D00 
 903              	.LC5:
 904 0044 436F6E6E 		.ascii	"Connection success\012\015\000"
 904      65637469 
 904      6F6E2073 
 904      75636365 
 904      73730A0D 
 905 0059 000000   		.space	3
 906              	.LC6:
 907 005c 496E6974 		.ascii	"Initialized.\000"
 907      69616C69 
 907      7A65642E 
 907      00
 908 0069 000000   		.space	3
 909              	.LC7:
 910 006c 56616C75 		.ascii	"Value entered\000"
 910      6520656E 
 910      74657265 
 910      6400
 911 007a 0000     		.space	2
 912              	.LC8:
 913 007c 54617267 		.ascii	"Target speed set to %i\012\015\000"
 913      65742073 
 913      70656564 
 913      20736574 
 913      20746F20 
 914 0095 000000   		.space	3
 915              	.LC9:
 916 0098 2D2D2D2D 		.ascii	"----GO----\000"
 916      474F2D2D 
 916      2D2D00
 917 00a3 00       		.space	1
 918              	.LC10:
 919 00a4 2D2D2D2D 		.ascii	"----GO----\012\015\000"
 919      474F2D2D 
 919      2D2D0A0D 
 919      00
 920 00b1 000000   		.space	3
 921              	.LC11:
 922 00b4 2D2D2D2D 		.ascii	"----STOP----\000"
 922      53544F50 
 922      2D2D2D2D 
 922      00
 923 00c1 000000   		.space	3
 924              	.LC12:
 925 00c4 2D2D2D2D 		.ascii	"----STOP----\012\015\000"
 925      53544F50 
 925      2D2D2D2D 
 925      0A0D00
 926 00d3 00       		.space	1
ARM GAS  C:\Users\ryant\AppData\Local\Temp\ccCmfcIi.s 			page 24


 927              	.LC13:
 928 00d4 6B703D25 		.ascii	"kp=%s\012\015\000"
 928      730A0D00 
 929              	.LC14:
 930 00dc 6B693D25 		.ascii	"ki=%s\012\015\000"
 930      730A0D00 
 931              	.LC15:
 932 00e4 6B643D25 		.ascii	"kd=%s\012\015\000"
 932      730A0D00 
 933              	.LC16:
 934 00ec 6B703D25 		.ascii	"kp=%i\012\015ki=%i\012\015kd=%i\012\015target_speed"
 934      690A0D6B 
 934      693D2569 
 934      0A0D6B64 
 934      3D25690A 
 935 010d 3D25690A 		.ascii	"=%i\012\015\000"
 935      0D00
 936 0113 00       		.space	1
 937              	.LC17:
 938 0114 496E7661 		.ascii	"Invalid input.\012\015\000"
 938      6C696420 
 938      696E7075 
 938      742E0A0D 
 938      00
 939              		.bss
 940              		.align	2
 941              		.set	.LANCHOR1,. + 0
 942              		.type	prev_i_term, %object
 943              		.size	prev_i_term, 4
 944              	prev_i_term:
 945 0000 00000000 		.space	4
 946              		.type	prev_error, %object
 947              		.size	prev_error, 4
 948              	prev_error:
 949 0004 00000000 		.space	4
 950              		.type	kd, %object
 951              		.size	kd, 4
 952              	kd:
 953 0008 00000000 		.space	4
 954              		.type	RUN_STATE, %object
 955              		.size	RUN_STATE, 4
 956              	RUN_STATE:
 957 000c 00000000 		.space	4
 958              		.text
 959              	.Letext0:
 960              		.file 2 "c:\\program files (x86)\\cypress\\psoc creator\\4.2\\psoc creator\\import\\gnu\\arm\\5.4.
 961              		.file 3 "c:\\program files (x86)\\cypress\\psoc creator\\4.2\\psoc creator\\import\\gnu\\arm\\5.4.
 962              		.file 4 "Generated_Source\\PSoC5/cytypes.h"
 963              		.file 5 "Generated_Source\\PSoC5/core_cm3.h"
 964              		.file 6 "c:\\program files (x86)\\cypress\\psoc creator\\4.2\\psoc creator\\import\\gnu\\arm\\5.4.
 965              		.file 7 "Generated_Source\\PSoC5/PWM_Motor.h"
 966              		.file 8 "c:\\program files (x86)\\cypress\\psoc creator\\4.2\\psoc creator\\import\\gnu\\arm\\5.4.
 967              		.file 9 "Generated_Source\\PSoC5/XBEE.h"
 968              		.file 10 "Generated_Source\\PSoC5/Counter.h"
 969              		.file 11 "Generated_Source\\PSoC5/Counter_Reset.h"
 970              		.file 12 "Generated_Source\\PSoC5/LCD.h"
 971              		.file 13 "Generated_Source\\PSoC5/Hall_Interrupt.h"
ARM GAS  C:\Users\ryant\AppData\Local\Temp\ccCmfcIi.s 			page 25


 972              		.file 14 "Generated_Source\\PSoC5/Counter_Interrupt.h"