ARM GAS  C:\Users\ryant\AppData\Local\Temp\ccrSC7uO.s 			page 1


   1              		.syntax unified
   2              		.cpu cortex-m3
   3              		.fpu softvfp
   4              		.eabi_attribute 20, 1
   5              		.eabi_attribute 21, 1
   6              		.eabi_attribute 23, 3
   7              		.eabi_attribute 24, 1
   8              		.eabi_attribute 25, 1
   9              		.eabi_attribute 26, 1
  10              		.eabi_attribute 30, 1
  11              		.eabi_attribute 34, 1
  12              		.eabi_attribute 18, 4
  13              		.thumb
  14              		.syntax unified
  15              		.file	"main.c"
  16              		.text
  17              	.Ltext0:
  18              		.cfi_sections	.debug_frame
  19              		.section	.text.Go_Again_Int_ISR,"ax",%progbits
  20              		.align	2
  21              		.global	Go_Again_Int_ISR
  22              		.thumb
  23              		.thumb_func
  24              		.type	Go_Again_Int_ISR, %function
  25              	Go_Again_Int_ISR:
  26              	.LFB64:
  27              		.file 1 "main.c"
   1:main.c        **** /* ========================================
   2:main.c        ****  * Ryan Thorpe and Will Makinen
   3:main.c        ****  * Group Number: 
   4:main.c        ****  * File Description: main.c serves as the software that runs on the PSoC that handles things like c
   5:main.c        ****  * the XBee, updating the control equation parameters, determining the PWM width, and other behavio
   6:main.c        ****  * 
   7:main.c        ****  * ========================================
   8:main.c        **** */
   9:main.c        **** #include "project.h"
  10:main.c        **** #include <stdio.h>
  11:main.c        **** #include <stdlib.h>
  12:main.c        **** #include <math.h>
  13:main.c        **** #include <string.h>
  14:main.c        **** #include "cyapicallbacks.h"
  15:main.c        **** #include "nav_control.h"
  16:main.c        **** #include "balloon.h"
  17:main.c        **** 
  18:main.c        **** //Constants
  19:main.c        **** #define BUF_SIZE 64 // For writing 
  20:main.c        **** #define CIRCUMFERENCE_FT 0.6477 // circumference of wheel
  21:main.c        **** #define COUNTER_MAX 65535 // Maximum value of counter
  22:main.c        **** #define MAGNETS_PER_REV 5.0 // number of magnets on wheel
  23:main.c        **** #define MAX_PWM 255 // Max duty cycle of PWM
  24:main.c        **** #define MICRO_S_PER_COUNT 100 // Microseconds of Elapsed time between counter increment 
  25:main.c        **** #define START_PWM 255 // PWM duty cycle to start car
  26:main.c        **** #define STOP_PWM 0 // PWM duty cycle to stop car
  27:main.c        **** 
  28:main.c        **** 
  29:main.c        **** 
  30:main.c        **** //Global variables 
ARM GAS  C:\Users\ryant\AppData\Local\Temp\ccrSC7uO.s 			page 2


  31:main.c        **** float TARGET_SPEED = 4.0; // Target speed
  32:main.c        **** float kp = 100; // Proportional constant 
  33:main.c        **** float ki = 10; // Integral constant 
  34:main.c        **** float kd = 0; // Derivative constant
  35:main.c        **** float prev_error = 0; // Error calculated during previous interrupt
  36:main.c        **** float prev_i_term = 0; // Integral term calculated during previous interrupt 
  37:main.c        **** float speed = 0; // current speed of the car
  38:main.c        **** 
  39:main.c        **** int prevArduinoRunState = 0;
  40:main.c        **** int arduinoRunState = 0;
  41:main.c        **** 
  42:main.c        **** CY_ISR(Go_Again_Int_ISR){
  28              		.loc 1 42 0
  29              		.cfi_startproc
  30              		@ args = 0, pretend = 0, frame = 0
  31              		@ frame_needed = 0, uses_anonymous_args = 0
  32              		@ link register save eliminated.
  33 0000 7047     		bx	lr
  34              		.cfi_endproc
  35              	.LFE64:
  36              		.size	Go_Again_Int_ISR, .-Go_Again_Int_ISR
  37              		.global	__aeabi_d2f
  38 0002 00BF     		.section	.text.PID_SetVal,"ax",%progbits
  39              		.align	2
  40              		.thumb
  41              		.thumb_func
  42              		.type	PID_SetVal, %function
  43              	PID_SetVal:
  44              	.LFB68:
  43:main.c        ****     // PWM_Motor_WriteCompare(START_PWM);
  44:main.c        **** }
  45:main.c        **** 
  46:main.c        **** //Calculate PID output based on target speed and control constants
  47:main.c        **** uint8 PID_Control(float speed, uint16 count) {
  48:main.c        ****         float p_term;
  49:main.c        ****         float i_term;
  50:main.c        ****         float d_term;
  51:main.c        ****         float output;
  52:main.c        ****        
  53:main.c        ****     
  54:main.c        ****         float error = TARGET_SPEED - speed;
  55:main.c        ****         
  56:main.c        ****         uint16 dt = count * MICRO_S_PER_COUNT;
  57:main.c        ****         
  58:main.c        ****         //Proportional Term
  59:main.c        ****         p_term = kp * error;
  60:main.c        ****     
  61:main.c        ****         //Integral Term
  62:main.c        ****         i_term =  ((ki/1000) * (prev_i_term + (error)*(dt)));
  63:main.c        ****         
  64:main.c        ****         //Derivative Term
  65:main.c        ****         d_term = kd * ((error - prev_error)/dt);
  66:main.c        ****        
  67:main.c        ****         output = p_term + i_term + d_term;
  68:main.c        ****         
  69:main.c        ****         prev_error = error;
  70:main.c        ****         prev_i_term = i_term;
ARM GAS  C:\Users\ryant\AppData\Local\Temp\ccrSC7uO.s 			page 3


  71:main.c        ****         
  72:main.c        ****         //Don't let the output exceed the maximum PWM width
  73:main.c        ****         if (output > MAX_PWM) {
  74:main.c        ****             output = MAX_PWM; 
  75:main.c        ****         }
  76:main.c        ****         
  77:main.c        ****         return (uint8)output;
  78:main.c        **** }
  79:main.c        **** 
  80:main.c        **** //Prepare the LCD screen for printing 
  81:main.c        **** void LCD_Reset(void) {
  82:main.c        ****     LCD_ClearDisplay();
  83:main.c        ****     LCD_Position(0,0);
  84:main.c        **** }
  85:main.c        **** 
  86:main.c        **** //Interrupt handler for the Hall Sensor 
  87:main.c        **** CY_ISR(inter) {
  88:main.c        ****     uint16 count;
  89:main.c        ****     int elapsed_time_micro_s;
  90:main.c        ****     float elapsed_time_s; 
  91:main.c        ****     char buf[64];
  92:main.c        ****     uint8 pwm_value;
  93:main.c        ****     
  94:main.c        ****     //print_xbee("In hall interrupt %i \n\r", RUN_STATE);
  95:main.c        ****     //print_xbee("a r s %i \n\r", arduinoRunState);
  96:main.c        ****     /* Is program running? */
  97:main.c        ****     if ((RUN_STATE == 1) && (arduinoRunState == 0)) {
  98:main.c        ****         //XBEE_PutString("Driving\n\r");
  99:main.c        ****             
 100:main.c        ****         /* Calculate speed and pwm width */
 101:main.c        ****         count = Counter_ReadCapture();
 102:main.c        ****         Counter_Reset_Write(1);
 103:main.c        ****         Counter_Reset_Write(0);
 104:main.c        ****         count = 65535 - count;
 105:main.c        ****         elapsed_time_micro_s = count * MICRO_S_PER_COUNT;
 106:main.c        ****         elapsed_time_s = (float) elapsed_time_micro_s / (float) 1e6;
 107:main.c        ****         speed = (float) CIRCUMFERENCE_FT / (elapsed_time_s * (float) MAGNETS_PER_REV);
 108:main.c        ****         pwm_value = PID_Control(speed, count);
 109:main.c        ****     
 110:main.c        ****         To_Pi_Write(1);
 111:main.c        ****     
 112:main.c        ****     // Only set values if RUN_STATE is 1
 113:main.c        ****     } else {
 114:main.c        ****         pwm_value = 0;
 115:main.c        ****     }
 116:main.c        ****     
 117:main.c        ****     /* Set PWM Value */
 118:main.c        ****     PWM_Motor_WriteCompare(pwm_value);
 119:main.c        **** }
 120:main.c        **** 
 121:main.c        **** //Update the PID constants by converting read buffer to a float
 122:main.c        **** static float PID_SetVal(char numBuf[], int numIndex, char readBuf[]) {
  45              		.loc 1 122 0
  46              		.cfi_startproc
  47              		@ args = 0, pretend = 0, frame = 0
  48              		@ frame_needed = 0, uses_anonymous_args = 0
  49              	.LVL0:
ARM GAS  C:\Users\ryant\AppData\Local\Temp\ccrSC7uO.s 			page 4


  50              		.loc 1 122 0
  51 0000 10B5     		push	{r4, lr}
  52              		.cfi_def_cfa_offset 8
  53              		.cfi_offset 4, -8
  54              		.cfi_offset 14, -4
  55              	.LVL1:
 123:main.c        ****     
 124:main.c        ****     int bufIndex = 2;
 125:main.c        ****     char readChar = readBuf[bufIndex]; 
  56              		.loc 1 125 0
  57 0002 9478     		ldrb	r4, [r2, #2]	@ zero_extendqisi2
  58              	.LVL2:
 124:main.c        ****     char readChar = readBuf[bufIndex]; 
  59              		.loc 1 124 0
  60 0004 0223     		movs	r3, #2
 126:main.c        ****     
 127:main.c        ****     while (readChar != '\r') {
  61              		.loc 1 127 0
  62 0006 04E0     		b	.L3
  63              	.LVL3:
  64              	.L4:
 128:main.c        ****         numBuf[numIndex] = readBuf[bufIndex];
  65              		.loc 1 128 0
  66 0008 D45C     		ldrb	r4, [r2, r3]	@ zero_extendqisi2
  67              	.LVL4:
  68 000a 4454     		strb	r4, [r0, r1]
 129:main.c        ****         numIndex++;
  69              		.loc 1 129 0
  70 000c 0131     		adds	r1, r1, #1
  71              	.LVL5:
 130:main.c        ****         bufIndex++;
  72              		.loc 1 130 0
  73 000e 0133     		adds	r3, r3, #1
  74              	.LVL6:
 131:main.c        ****         readChar = readBuf[bufIndex];
  75              		.loc 1 131 0
  76 0010 D45C     		ldrb	r4, [r2, r3]	@ zero_extendqisi2
  77              	.LVL7:
  78              	.L3:
 127:main.c        ****         numBuf[numIndex] = readBuf[bufIndex];
  79              		.loc 1 127 0
  80 0012 0D2C     		cmp	r4, #13
  81 0014 F8D1     		bne	.L4
 132:main.c        ****     }
 133:main.c        **** 
 134:main.c        ****     numBuf[numIndex] = '\0';
  82              		.loc 1 134 0
  83 0016 0023     		movs	r3, #0
  84              	.LVL8:
  85 0018 4354     		strb	r3, [r0, r1]
 135:main.c        ****     
 136:main.c        ****     return atof(numBuf);
  86              		.loc 1 136 0
  87 001a FFF7FEFF 		bl	atof
  88              	.LVL9:
  89 001e FFF7FEFF 		bl	__aeabi_d2f
  90              	.LVL10:
ARM GAS  C:\Users\ryant\AppData\Local\Temp\ccrSC7uO.s 			page 5


 137:main.c        **** }
  91              		.loc 1 137 0
  92 0022 10BD     		pop	{r4, pc}
  93              		.cfi_endproc
  94              	.LFE68:
  95              		.size	PID_SetVal, .-PID_SetVal
  96              		.global	__aeabi_fsub
  97              		.global	__aeabi_fmul
  98              		.global	__aeabi_fdiv
  99              		.global	__aeabi_i2f
 100              		.global	__aeabi_fadd
 101              		.global	__aeabi_fcmpgt
 102              		.global	__aeabi_f2uiz
 103              		.section	.text.PID_Control,"ax",%progbits
 104              		.align	2
 105              		.global	PID_Control
 106              		.thumb
 107              		.thumb_func
 108              		.type	PID_Control, %function
 109              	PID_Control:
 110              	.LFB65:
  47:main.c        ****         float p_term;
 111              		.loc 1 47 0
 112              		.cfi_startproc
 113              		@ args = 0, pretend = 0, frame = 0
 114              		@ frame_needed = 0, uses_anonymous_args = 0
 115              	.LVL11:
 116 0000 2DE9F041 		push	{r4, r5, r6, r7, r8, lr}
 117              		.cfi_def_cfa_offset 24
 118              		.cfi_offset 4, -24
 119              		.cfi_offset 5, -20
 120              		.cfi_offset 6, -16
 121              		.cfi_offset 7, -12
 122              		.cfi_offset 8, -8
 123              		.cfi_offset 14, -4
 124 0004 0C46     		mov	r4, r1
  54:main.c        ****         
 125              		.loc 1 54 0
 126 0006 234E     		ldr	r6, .L10
 127 0008 0146     		mov	r1, r0
 128              	.LVL12:
 129 000a 3068     		ldr	r0, [r6]	@ float
 130              	.LVL13:
 131 000c FFF7FEFF 		bl	__aeabi_fsub
 132              	.LVL14:
 133 0010 0546     		mov	r5, r0
 134              	.LVL15:
  56:main.c        ****         
 135              		.loc 1 56 0
 136 0012 04EB8404 		add	r4, r4, r4, lsl #2
 137 0016 04EB8404 		add	r4, r4, r4, lsl #2
 138 001a A300     		lsls	r3, r4, #2
 139 001c 9CB2     		uxth	r4, r3
 140              	.LVL16:
  59:main.c        ****     
 141              		.loc 1 59 0
 142 001e 7168     		ldr	r1, [r6, #4]	@ float
ARM GAS  C:\Users\ryant\AppData\Local\Temp\ccrSC7uO.s 			page 6


 143 0020 FFF7FEFF 		bl	__aeabi_fmul
 144              	.LVL17:
 145 0024 8046     		mov	r8, r0
 146              	.LVL18:
  62:main.c        ****         
 147              		.loc 1 62 0
 148 0026 1C49     		ldr	r1, .L10+4
 149 0028 B068     		ldr	r0, [r6, #8]	@ float
 150              	.LVL19:
 151 002a FFF7FEFF 		bl	__aeabi_fdiv
 152              	.LVL20:
 153 002e 0646     		mov	r6, r0
 154 0030 2046     		mov	r0, r4
 155 0032 FFF7FEFF 		bl	__aeabi_i2f
 156              	.LVL21:
 157 0036 0746     		mov	r7, r0
 158 0038 0146     		mov	r1, r0
 159 003a 2846     		mov	r0, r5
 160 003c FFF7FEFF 		bl	__aeabi_fmul
 161              	.LVL22:
 162 0040 164C     		ldr	r4, .L10+8
 163              	.LVL23:
 164 0042 2168     		ldr	r1, [r4]	@ float
 165 0044 FFF7FEFF 		bl	__aeabi_fadd
 166              	.LVL24:
 167 0048 0146     		mov	r1, r0
 168 004a 3046     		mov	r0, r6
 169 004c FFF7FEFF 		bl	__aeabi_fmul
 170              	.LVL25:
 171 0050 0646     		mov	r6, r0
 172              	.LVL26:
  65:main.c        ****        
 173              		.loc 1 65 0
 174 0052 6168     		ldr	r1, [r4, #4]	@ float
 175 0054 2846     		mov	r0, r5
 176              	.LVL27:
 177 0056 FFF7FEFF 		bl	__aeabi_fsub
 178              	.LVL28:
 179 005a 3946     		mov	r1, r7
 180 005c FFF7FEFF 		bl	__aeabi_fdiv
 181              	.LVL29:
 182 0060 A168     		ldr	r1, [r4, #8]	@ float
 183 0062 FFF7FEFF 		bl	__aeabi_fmul
 184              	.LVL30:
 185 0066 0746     		mov	r7, r0
 186              	.LVL31:
  67:main.c        ****         
 187              		.loc 1 67 0
 188 0068 3146     		mov	r1, r6
 189 006a 4046     		mov	r0, r8
 190              	.LVL32:
 191 006c FFF7FEFF 		bl	__aeabi_fadd
 192              	.LVL33:
 193 0070 0146     		mov	r1, r0
 194 0072 3846     		mov	r0, r7
 195 0074 FFF7FEFF 		bl	__aeabi_fadd
 196              	.LVL34:
ARM GAS  C:\Users\ryant\AppData\Local\Temp\ccrSC7uO.s 			page 7


 197 0078 0746     		mov	r7, r0
 198              	.LVL35:
  69:main.c        ****         prev_i_term = i_term;
 199              		.loc 1 69 0
 200 007a 6560     		str	r5, [r4, #4]	@ float
  70:main.c        ****         
 201              		.loc 1 70 0
 202 007c 2660     		str	r6, [r4]	@ float
  73:main.c        ****             output = MAX_PWM; 
 203              		.loc 1 73 0
 204 007e 0849     		ldr	r1, .L10+12
 205 0080 FFF7FEFF 		bl	__aeabi_fcmpgt
 206              	.LVL36:
 207 0084 00B1     		cbz	r0, .L7
  74:main.c        ****         }
 208              		.loc 1 74 0
 209 0086 064F     		ldr	r7, .L10+12
 210              	.LVL37:
 211              	.L7:
  77:main.c        **** }
 212              		.loc 1 77 0
 213 0088 3846     		mov	r0, r7
 214 008a FFF7FEFF 		bl	__aeabi_f2uiz
 215              	.LVL38:
  78:main.c        **** 
 216              		.loc 1 78 0
 217 008e C0B2     		uxtb	r0, r0
 218 0090 BDE8F081 		pop	{r4, r5, r6, r7, r8, pc}
 219              	.LVL39:
 220              	.L11:
 221              		.align	2
 222              	.L10:
 223 0094 00000000 		.word	.LANCHOR0
 224 0098 00007A44 		.word	1148846080
 225 009c 00000000 		.word	.LANCHOR1
 226 00a0 00007F43 		.word	1132396544
 227              		.cfi_endproc
 228              	.LFE65:
 229              		.size	PID_Control, .-PID_Control
 230              		.section	.text.inter,"ax",%progbits
 231              		.align	2
 232              		.global	inter
 233              		.thumb
 234              		.thumb_func
 235              		.type	inter, %function
 236              	inter:
 237              	.LFB67:
  87:main.c        ****     uint16 count;
 238              		.loc 1 87 0
 239              		.cfi_startproc
 240              		@ args = 0, pretend = 0, frame = 0
 241              		@ frame_needed = 0, uses_anonymous_args = 0
 242 0000 10B5     		push	{r4, lr}
 243              		.cfi_def_cfa_offset 8
 244              		.cfi_offset 4, -8
 245              		.cfi_offset 14, -4
  97:main.c        ****         //XBEE_PutString("Driving\n\r");
ARM GAS  C:\Users\ryant\AppData\Local\Temp\ccrSC7uO.s 			page 8


 246              		.loc 1 97 0
 247 0002 194B     		ldr	r3, .L17
 248 0004 1B68     		ldr	r3, [r3]
 249 0006 012B     		cmp	r3, #1
 250 0008 26D1     		bne	.L14
  97:main.c        ****         //XBEE_PutString("Driving\n\r");
 251              		.loc 1 97 0 is_stmt 0 discriminator 1
 252 000a 184B     		ldr	r3, .L17+4
 253 000c DB68     		ldr	r3, [r3, #12]
 254 000e 2BBB     		cbnz	r3, .L15
 101:main.c        ****         Counter_Reset_Write(1);
 255              		.loc 1 101 0 is_stmt 1
 256 0010 FFF7FEFF 		bl	Counter_ReadCapture
 257              	.LVL40:
 258 0014 0446     		mov	r4, r0
 259              	.LVL41:
 102:main.c        ****         Counter_Reset_Write(0);
 260              		.loc 1 102 0
 261 0016 0120     		movs	r0, #1
 262 0018 FFF7FEFF 		bl	Counter_Reset_Write
 263              	.LVL42:
 103:main.c        ****         count = 65535 - count;
 264              		.loc 1 103 0
 265 001c 0020     		movs	r0, #0
 266 001e FFF7FEFF 		bl	Counter_Reset_Write
 267              	.LVL43:
 104:main.c        ****         elapsed_time_micro_s = count * MICRO_S_PER_COUNT;
 268              		.loc 1 104 0
 269 0022 E443     		mvns	r4, r4
 270              	.LVL44:
 271 0024 A4B2     		uxth	r4, r4
 272              	.LVL45:
 106:main.c        ****         speed = (float) CIRCUMFERENCE_FT / (elapsed_time_s * (float) MAGNETS_PER_REV);
 273              		.loc 1 106 0
 274 0026 6420     		movs	r0, #100
 275 0028 00FB04F0 		mul	r0, r0, r4
 276              	.LVL46:
 277 002c FFF7FEFF 		bl	__aeabi_i2f
 278              	.LVL47:
 279 0030 0F49     		ldr	r1, .L17+8
 280 0032 FFF7FEFF 		bl	__aeabi_fdiv
 281              	.LVL48:
 107:main.c        ****         pwm_value = PID_Control(speed, count);
 282              		.loc 1 107 0
 283 0036 0F49     		ldr	r1, .L17+12
 284 0038 FFF7FEFF 		bl	__aeabi_fmul
 285              	.LVL49:
 286 003c 0146     		mov	r1, r0
 287 003e 0E48     		ldr	r0, .L17+16
 288 0040 FFF7FEFF 		bl	__aeabi_fdiv
 289              	.LVL50:
 290 0044 094B     		ldr	r3, .L17+4
 291 0046 1861     		str	r0, [r3, #16]	@ float
 108:main.c        ****     
 292              		.loc 1 108 0
 293 0048 2146     		mov	r1, r4
 294 004a FFF7FEFF 		bl	PID_Control
ARM GAS  C:\Users\ryant\AppData\Local\Temp\ccrSC7uO.s 			page 9


 295              	.LVL51:
 296 004e 0446     		mov	r4, r0
 297              	.LVL52:
 110:main.c        ****     
 298              		.loc 1 110 0
 299 0050 0120     		movs	r0, #1
 300 0052 FFF7FEFF 		bl	To_Pi_Write
 301              	.LVL53:
 302 0056 02E0     		b	.L13
 303              	.LVL54:
 304              	.L14:
 114:main.c        ****     }
 305              		.loc 1 114 0
 306 0058 0024     		movs	r4, #0
 307 005a 00E0     		b	.L13
 308              	.L15:
 309 005c 0024     		movs	r4, #0
 310              	.L13:
 311              	.LVL55:
 118:main.c        **** }
 312              		.loc 1 118 0
 313 005e 2046     		mov	r0, r4
 314 0060 FFF7FEFF 		bl	PWM_Motor_WriteCompare
 315              	.LVL56:
 316 0064 10BD     		pop	{r4, pc}
 317              	.LVL57:
 318              	.L18:
 319 0066 00BF     		.align	2
 320              	.L17:
 321 0068 00000000 		.word	RUN_STATE
 322 006c 00000000 		.word	.LANCHOR1
 323 0070 00247449 		.word	1232348160
 324 0074 0000A040 		.word	1084227584
 325 0078 ABCF253F 		.word	1059442603
 326              		.cfi_endproc
 327              	.LFE67:
 328              		.size	inter, .-inter
 329              		.section	.text.LCD_Reset,"ax",%progbits
 330              		.align	2
 331              		.global	LCD_Reset
 332              		.thumb
 333              		.thumb_func
 334              		.type	LCD_Reset, %function
 335              	LCD_Reset:
 336              	.LFB66:
  81:main.c        ****     LCD_ClearDisplay();
 337              		.loc 1 81 0
 338              		.cfi_startproc
 339              		@ args = 0, pretend = 0, frame = 0
 340              		@ frame_needed = 0, uses_anonymous_args = 0
 341 0000 08B5     		push	{r3, lr}
 342              		.cfi_def_cfa_offset 8
 343              		.cfi_offset 3, -8
 344              		.cfi_offset 14, -4
  82:main.c        ****     LCD_Position(0,0);
 345              		.loc 1 82 0
 346 0002 0120     		movs	r0, #1
ARM GAS  C:\Users\ryant\AppData\Local\Temp\ccrSC7uO.s 			page 10


 347 0004 FFF7FEFF 		bl	LCD_WriteControl
 348              	.LVL58:
  83:main.c        **** }
 349              		.loc 1 83 0
 350 0008 0021     		movs	r1, #0
 351 000a 0846     		mov	r0, r1
 352 000c FFF7FEFF 		bl	LCD_Position
 353              	.LVL59:
 354 0010 08BD     		pop	{r3, pc}
 355              		.cfi_endproc
 356              	.LFE66:
 357              		.size	LCD_Reset, .-LCD_Reset
 358              		.global	__aeabi_f2iz
 359 0012 00BF     		.section	.text.main,"ax",%progbits
 360              		.align	2
 361              		.global	main
 362              		.thumb
 363              		.thumb_func
 364              		.type	main, %function
 365              	main:
 366              	.LFB69:
 138:main.c        **** 
 139:main.c        **** //Main method handles setup, new input
 140:main.c        **** int main(void)
 141:main.c        **** {
 367              		.loc 1 141 0
 368              		.cfi_startproc
 369              		@ args = 0, pretend = 0, frame = 192
 370              		@ frame_needed = 0, uses_anonymous_args = 0
 371 0000 70B5     		push	{r4, r5, r6, lr}
 372              		.cfi_def_cfa_offset 16
 373              		.cfi_offset 4, -16
 374              		.cfi_offset 5, -12
 375              		.cfi_offset 6, -8
 376              		.cfi_offset 14, -4
 377 0002 B2B0     		sub	sp, sp, #200
 378              		.cfi_def_cfa_offset 216
 379              	.LVL60:
 142:main.c        ****     // Local variable declarations
 143:main.c        ****     uint8 readChar;
 144:main.c        ****     uint8 readChar_ard;
 145:main.c        ****     char arduinoChar;
 146:main.c        ****     char readBuf[BUF_SIZE];
 147:main.c        ****     char outputBuf[BUF_SIZE];
 148:main.c        ****     uint8 bufIndex = 0;
 149:main.c        ****     int numIndex = 0;
 150:main.c        ****     char numBuf[BUF_SIZE];
 151:main.c        ****     int angle;
 152:main.c        ****     int newRunState = 0; 
 153:main.c        ****     
 154:main.c        ****     // Start Components for Speed Control
 155:main.c        ****     CyGlobalIntEnable; 
 380              		.loc 1 155 0
 381              		.syntax unified
 382              	@ 155 "main.c" 1
 383 0004 62B6     		CPSIE   i
 384              	@ 0 "" 2
ARM GAS  C:\Users\ryant\AppData\Local\Temp\ccrSC7uO.s 			page 11


 156:main.c        ****     XBEE_Start();
 385              		.loc 1 156 0
 386              		.thumb
 387              		.syntax unified
 388 0006 FFF7FEFF 		bl	XBEE_Start
 389              	.LVL61:
 157:main.c        ****     LCD_Start();
 390              		.loc 1 157 0
 391 000a FFF7FEFF 		bl	LCD_Start
 392              	.LVL62:
 158:main.c        ****     Hall_Interrupt_Start();
 393              		.loc 1 158 0
 394 000e FFF7FEFF 		bl	Hall_Interrupt_Start
 395              	.LVL63:
 159:main.c        ****     Hall_Interrupt_SetVector(inter);
 396              		.loc 1 159 0
 397 0012 9848     		ldr	r0, .L45
 398 0014 FFF7FEFF 		bl	Hall_Interrupt_SetVector
 399              	.LVL64:
 160:main.c        ****     Counter_Start();
 400              		.loc 1 160 0
 401 0018 FFF7FEFF 		bl	Counter_Start
 402              	.LVL65:
 161:main.c        ****     Counter_Interrupt_Start();
 403              		.loc 1 161 0
 404 001c FFF7FEFF 		bl	Counter_Interrupt_Start
 405              	.LVL66:
 162:main.c        ****     PWM_Motor_Start();
 406              		.loc 1 162 0
 407 0020 FFF7FEFF 		bl	PWM_Motor_Start
 408              	.LVL67:
 163:main.c        ****     V_Sync_Int_Start();
 409              		.loc 1 163 0
 410 0024 FFF7FEFF 		bl	V_Sync_Int_Start
 411              	.LVL68:
 164:main.c        ****     V_Sync_Int_SetVector(V_Sync_ISR);
 412              		.loc 1 164 0
 413 0028 9348     		ldr	r0, .L45+4
 414 002a FFF7FEFF 		bl	V_Sync_Int_SetVector
 415              	.LVL69:
 165:main.c        ****     H_Sync_Int_Start();
 416              		.loc 1 165 0
 417 002e FFF7FEFF 		bl	H_Sync_Int_Start
 418              	.LVL70:
 166:main.c        ****     H_Sync_Int_SetVector(H_Sync_ISR);
 419              		.loc 1 166 0
 420 0032 9248     		ldr	r0, .L45+8
 421 0034 FFF7FEFF 		bl	H_Sync_Int_SetVector
 422              	.LVL71:
 167:main.c        ****     
 168:main.c        ****     
 169:main.c        ****     // Start Components for Navigation
 170:main.c        ****     Servo_PWM_Start();
 423              		.loc 1 170 0
 424 0038 FFF7FEFF 		bl	Servo_PWM_Start
 425              	.LVL72:
 171:main.c        ****     Threshold_Comparator_Start();
ARM GAS  C:\Users\ryant\AppData\Local\Temp\ccrSC7uO.s 			page 12


 426              		.loc 1 171 0
 427 003c FFF7FEFF 		bl	Threshold_Comparator_Start
 428              	.LVL73:
 172:main.c        ****     Line_Timer_Start();
 429              		.loc 1 172 0
 430 0040 FFF7FEFF 		bl	Line_Timer_Start
 431              	.LVL74:
 173:main.c        ****     Line_Int_Start();
 432              		.loc 1 173 0
 433 0044 FFF7FEFF 		bl	Line_Int_Start
 434              	.LVL75:
 174:main.c        ****     Line_Int_SetVector(Line_Int_ISR);
 435              		.loc 1 174 0
 436 0048 8D48     		ldr	r0, .L45+12
 437 004a FFF7FEFF 		bl	Line_Int_SetVector
 438              	.LVL76:
 175:main.c        ****     Porch_Int_Start();
 439              		.loc 1 175 0
 440 004e FFF7FEFF 		bl	Porch_Int_Start
 441              	.LVL77:
 176:main.c        ****     Porch_Int_SetVector(Porch_Int_ISR);
 442              		.loc 1 176 0
 443 0052 8C48     		ldr	r0, .L45+16
 444 0054 FFF7FEFF 		bl	Porch_Int_SetVector
 445              	.LVL78:
 177:main.c        ****     
 178:main.c        ****     // Start Components for Balloon Bot
 179:main.c        ****     Go_Again_Int_Start();
 446              		.loc 1 179 0
 447 0058 FFF7FEFF 		bl	Go_Again_Int_Start
 448              	.LVL79:
 180:main.c        ****     Go_Again_Int_SetVector(Go_Again_Int_ISR);
 449              		.loc 1 180 0
 450 005c 8A48     		ldr	r0, .L45+20
 451 005e FFF7FEFF 		bl	Go_Again_Int_SetVector
 452              	.LVL80:
 181:main.c        **** 
 182:main.c        ****     Servo_PWM_WriteCompare(Servo_PWM_AngleCalc(CENTER_ANGLE));
 453              		.loc 1 182 0
 454 0062 8A4B     		ldr	r3, .L45+24
 455 0064 1868     		ldr	r0, [r3]
 456 0066 FFF7FEFF 		bl	Servo_PWM_AngleCalc
 457              	.LVL81:
 458 006a FFF7FEFF 		bl	Servo_PWM_WriteCompare
 459              	.LVL82:
 183:main.c        ****     
 184:main.c        ****     // Message to show that PSoC is ready to go
 185:main.c        ****     XBEE_PutString("Connection success\n\r");
 460              		.loc 1 185 0
 461 006e 8848     		ldr	r0, .L45+28
 462 0070 FFF7FEFF 		bl	XBEE_PutString
 463              	.LVL83:
 186:main.c        ****     LCD_PrintString("Initialized.");
 464              		.loc 1 186 0
 465 0074 8748     		ldr	r0, .L45+32
 466 0076 FFF7FEFF 		bl	LCD_PrintString
 467              	.LVL84:
ARM GAS  C:\Users\ryant\AppData\Local\Temp\ccrSC7uO.s 			page 13


 187:main.c        ****     
 188:main.c        ****     To_Pi_Write(0);
 468              		.loc 1 188 0
 469 007a 0020     		movs	r0, #0
 470 007c FFF7FEFF 		bl	To_Pi_Write
 471              	.LVL85:
 472              	.L40:
 141:main.c        ****     // Local variable declarations
 473              		.loc 1 141 0
 474 0080 0024     		movs	r4, #0
 475              	.LVL86:
 476              	.L39:
 189:main.c        ****     for(;;)
 190:main.c        ****     {
 191:main.c        ****         /*----------PI HANDLING----------*/
 192:main.c        ****         
 193:main.c        ****         arduinoRunState = From_Pi_Read();
 477              		.loc 1 193 0
 478 0082 FFF7FEFF 		bl	From_Pi_Read
 479              	.LVL87:
 480 0086 844B     		ldr	r3, .L45+36
 481 0088 D860     		str	r0, [r3, #12]
 194:main.c        ****         //if (prevArduinoRunState == 1) {
 195:main.c        ****           //  arduinoRunState = 1;
 196:main.c        ****         //}
 197:main.c        ****         if (arduinoRunState == 0) {
 482              		.loc 1 197 0
 483 008a A8B9     		cbnz	r0, .L22
 198:main.c        ****             if (prevArduinoRunState == 1) {
 484              		.loc 1 198 0
 485 008c 5B69     		ldr	r3, [r3, #20]
 486 008e 012B     		cmp	r3, #1
 487 0090 12D1     		bne	.L22
 199:main.c        ****                 PWM_Motor_WriteCompare(START_PWM);
 488              		.loc 1 199 0
 489 0092 FF20     		movs	r0, #255
 490 0094 FFF7FEFF 		bl	PWM_Motor_WriteCompare
 491              	.LVL88:
 200:main.c        ****                 prev_error = 0;
 492              		.loc 1 200 0
 493 0098 7F4A     		ldr	r2, .L45+36
 494 009a 0023     		movs	r3, #0
 495 009c 5360     		str	r3, [r2, #4]	@ float
 201:main.c        ****                 prev_i_term = 0;
 496              		.loc 1 201 0
 497 009e 1360     		str	r3, [r2]	@ float
 202:main.c        ****                 prev_error_servo = 0;
 498              		.loc 1 202 0
 499 00a0 7E49     		ldr	r1, .L45+40
 500 00a2 0B60     		str	r3, [r1]	@ float
 203:main.c        ****                 prev_i_term_servo = 0;
 501              		.loc 1 203 0
 502 00a4 7E49     		ldr	r1, .L45+44
 503 00a6 0B60     		str	r3, [r1]	@ float
 204:main.c        ****                 arduinoRunState = 0;
 504              		.loc 1 204 0
 505 00a8 0025     		movs	r5, #0
ARM GAS  C:\Users\ryant\AppData\Local\Temp\ccrSC7uO.s 			page 14


 506 00aa D560     		str	r5, [r2, #12]
 205:main.c        ****                 Counter_Reset_Write(1);
 507              		.loc 1 205 0
 508 00ac 0120     		movs	r0, #1
 509 00ae FFF7FEFF 		bl	Counter_Reset_Write
 510              	.LVL89:
 206:main.c        ****                 Counter_Reset_Write(0);
 511              		.loc 1 206 0
 512 00b2 2846     		mov	r0, r5
 513 00b4 FFF7FEFF 		bl	Counter_Reset_Write
 514              	.LVL90:
 515              	.L22:
 207:main.c        ****             }
 208:main.c        ****         }
 209:main.c        ****         prevArduinoRunState = arduinoRunState;
 516              		.loc 1 209 0
 517 00b8 774B     		ldr	r3, .L45+36
 518 00ba DA68     		ldr	r2, [r3, #12]
 519 00bc 5A61     		str	r2, [r3, #20]
 210:main.c        ****         /*----------END PI HANDLING----------*/
 211:main.c        ****         
 212:main.c        ****         /*------------------Input Reading------------------*/
 213:main.c        ****         readChar = XBEE_GetChar();
 520              		.loc 1 213 0
 521 00be FFF7FEFF 		bl	XBEE_GetChar
 522              	.LVL91:
 214:main.c        ****         /* Read a char */
 215:main.c        ****         if (readChar > 0u) {
 523              		.loc 1 215 0
 524 00c2 0546     		mov	r5, r0
 525 00c4 0028     		cmp	r0, #0
 526 00c6 00F0DC81 		beq	.L23
 216:main.c        ****             
 217:main.c        ****             
 218:main.c        ****             LCD_Reset();
 527              		.loc 1 218 0
 528 00ca FFF7FEFF 		bl	LCD_Reset
 529              	.LVL92:
 219:main.c        ****             LCD_PutChar(readChar);
 530              		.loc 1 219 0
 531 00ce 2846     		mov	r0, r5
 532 00d0 FFF7FEFF 		bl	LCD_PutChar
 533              	.LVL93:
 220:main.c        ****             readBuf[bufIndex] = readChar;
 534              		.loc 1 220 0
 535 00d4 32AB     		add	r3, sp, #200
 536 00d6 2344     		add	r3, r3, r4
 537 00d8 03F8405C 		strb	r5, [r3, #-64]
 221:main.c        ****             bufIndex++;
 538              		.loc 1 221 0
 539 00dc 0134     		adds	r4, r4, #1
 540              	.LVL94:
 541 00de E4B2     		uxtb	r4, r4
 542              	.LVL95:
 222:main.c        ****             
 223:main.c        ****             /* Handle ENTER pressed */
 224:main.c        ****             if (readChar == '\r') {
ARM GAS  C:\Users\ryant\AppData\Local\Temp\ccrSC7uO.s 			page 15


 543              		.loc 1 224 0
 544 00e0 0D2D     		cmp	r5, #13
 545 00e2 40F0CE81 		bne	.L23
 225:main.c        ****                 LCD_Reset();
 546              		.loc 1 225 0
 547 00e6 FFF7FEFF 		bl	LCD_Reset
 548              	.LVL96:
 226:main.c        ****                 LCD_PrintString("Value entered");
 549              		.loc 1 226 0
 550 00ea 6E48     		ldr	r0, .L45+48
 551 00ec FFF7FEFF 		bl	LCD_PrintString
 552              	.LVL97:
 227:main.c        ****                    
 228:main.c        ****                 // Switch case to handle different char inputs
 229:main.c        ****                 switch (readBuf[0]) {
 553              		.loc 1 229 0
 554 00f0 9DF88830 		ldrb	r3, [sp, #136]	@ zero_extendqisi2
 555 00f4 613B     		subs	r3, r3, #97
 556 00f6 142B     		cmp	r3, #20
 557 00f8 00F2B481 		bhi	.L24
 558 00fc DFE813F0 		tbh	[pc, r3, lsl #1]
 559              	.L26:
 560 0100 2901     		.2byte	(.L25-.L26)/2
 561 0102 B201     		.2byte	(.L24-.L26)/2
 562 0104 8501     		.2byte	(.L27-.L26)/2
 563 0106 A400     		.2byte	(.L28-.L26)/2
 564 0108 6F01     		.2byte	(.L29-.L26)/2
 565 010a B201     		.2byte	(.L24-.L26)/2
 566 010c 2D00     		.2byte	(.L30-.L26)/2
 567 010e B201     		.2byte	(.L24-.L26)/2
 568 0110 8E00     		.2byte	(.L31-.L26)/2
 569 0112 B201     		.2byte	(.L24-.L26)/2
 570 0114 EC00     		.2byte	(.L32-.L26)/2
 571 0116 B201     		.2byte	(.L24-.L26)/2
 572 0118 B201     		.2byte	(.L24-.L26)/2
 573 011a 5901     		.2byte	(.L33-.L26)/2
 574 011c B201     		.2byte	(.L24-.L26)/2
 575 011e 7800     		.2byte	(.L34-.L26)/2
 576 0120 B201     		.2byte	(.L24-.L26)/2
 577 0122 4301     		.2byte	(.L35-.L26)/2
 578 0124 5700     		.2byte	(.L36-.L26)/2
 579 0126 1500     		.2byte	(.L37-.L26)/2
 580 0128 9D01     		.2byte	(.L38-.L26)/2
 581              		.p2align 1
 582              	.L37:
 230:main.c        ****                     
 231:main.c        ****                     // If t is pressed, change the target speed
 232:main.c        ****                     case 't':
 233:main.c        ****                         if (RUN_STATE == 0) {
 583              		.loc 1 233 0
 584 012a 5F4B     		ldr	r3, .L45+52
 585 012c 1B68     		ldr	r3, [r3]
 586 012e 002B     		cmp	r3, #0
 587 0130 40F0A281 		bne	.L41
 234:main.c        ****                             TARGET_SPEED = PID_SetVal(numBuf, numIndex, readBuf);
 588              		.loc 1 234 0
 589 0134 22AA     		add	r2, sp, #136
ARM GAS  C:\Users\ryant\AppData\Local\Temp\ccrSC7uO.s 			page 16


 590 0136 0021     		movs	r1, #0
 591 0138 02A8     		add	r0, sp, #8
 592 013a FFF7FEFF 		bl	PID_SetVal
 593              	.LVL98:
 594 013e 5B4B     		ldr	r3, .L45+56
 595 0140 1860     		str	r0, [r3]	@ float
 235:main.c        ****                             sprintf(outputBuf, "Target speed set to %i\n\r", (int)TARGET_SPEED);
 596              		.loc 1 235 0
 597 0142 FFF7FEFF 		bl	__aeabi_f2iz
 598              	.LVL99:
 599 0146 0246     		mov	r2, r0
 600 0148 5949     		ldr	r1, .L45+60
 601 014a 12A8     		add	r0, sp, #72
 602 014c FFF7FEFF 		bl	sprintf
 603              	.LVL100:
 236:main.c        ****                             XBEE_PutString(outputBuf);
 604              		.loc 1 236 0
 605 0150 12A8     		add	r0, sp, #72
 606 0152 FFF7FEFF 		bl	XBEE_PutString
 607              	.LVL101:
 237:main.c        ****                         }
 238:main.c        ****                         break;
 239:main.c        ****                    
 240:main.c        ****                     // If g is pressed, start the car
 241:main.c        ****                     case 'g': 
 242:main.c        ****                         To_Pi_Write(1);
 243:main.c        ****                         if (RUN_STATE == 0) {
 244:main.c        ****                             RUN_STATE = 1;
 245:main.c        ****                             STEER_STATE = 1;
 246:main.c        ****                             BALLOON_STATE = 1;
 247:main.c        ****                             LCD_Reset();
 248:main.c        ****                             LCD_PrintString("----GO----");
 249:main.c        ****                             XBEE_PutString("----GO----\n\r");
 250:main.c        ****                             prev_error = 0;
 251:main.c        ****                             prev_i_term = 0;
 252:main.c        ****                             prev_error_servo = 0;
 253:main.c        ****                             prev_i_term_servo = 0;
 254:main.c        ****                             PWM_Motor_WriteCompare(START_PWM);
 255:main.c        ****                             Counter_Reset_Write(1);
 256:main.c        ****                             Counter_Reset_Write(0);
 257:main.c        ****                         }
 258:main.c        ****                         break;
 259:main.c        ****                         
 260:main.c        ****                         
 261:main.c        ****                     // If s is pressed, stop the car 
 262:main.c        ****                     case 's':
 263:main.c        ****                         To_Pi_Write(0);
 264:main.c        ****                         if (RUN_STATE == 1) {
 265:main.c        ****                             RUN_STATE = 0;
 266:main.c        ****                             BALLOON_STATE = 0;
 267:main.c        ****                             LCD_Reset();
 268:main.c        ****                             LCD_PrintString("----STOP----");
 269:main.c        ****                             PWM_Motor_WriteCompare(STOP_PWM);
 270:main.c        ****                             XBEE_PutString("----STOP----\n\r");
 271:main.c        ****                             prev_error = 0;
 272:main.c        ****                             prev_i_term = 0;
 273:main.c        ****                             prev_error_servo = 0;
ARM GAS  C:\Users\ryant\AppData\Local\Temp\ccrSC7uO.s 			page 17


 274:main.c        ****                             prev_i_term_servo = 0;
 275:main.c        ****                         }
 276:main.c        ****                         break;
 277:main.c        ****                         
 278:main.c        ****                      // If p is pressed, update the proportional constant 
 279:main.c        ****                     case 'p':
 280:main.c        ****                         LCD_Reset();
 281:main.c        ****                         kp = PID_SetVal(numBuf, numIndex,readBuf);
 282:main.c        ****                         sprintf(outputBuf, "kp=%s\n\r", numBuf);
 283:main.c        ****                         XBEE_PutString(outputBuf);
 284:main.c        ****                         LCD_PrintString(outputBuf);
 285:main.c        ****                         break;
 286:main.c        ****                        
 287:main.c        ****                     // If i is pressed, update the integral constant     
 288:main.c        ****                     case 'i': 
 289:main.c        ****                         LCD_Reset();
 290:main.c        ****                         ki = PID_SetVal(numBuf, numIndex,readBuf);
 291:main.c        ****                         sprintf(outputBuf, "ki=%s\n\r", numBuf);
 292:main.c        ****                         XBEE_PutString(outputBuf);
 293:main.c        ****                         LCD_PrintString(outputBuf);
 294:main.c        ****                         break;
 295:main.c        ****                     
 296:main.c        ****                     // If d is pressed, update the derivative constant 
 297:main.c        ****                     case 'd': 
 298:main.c        ****                         LCD_Reset();
 299:main.c        ****                         kd = PID_SetVal(numBuf, numIndex,readBuf);
 300:main.c        ****                         sprintf(outputBuf, "kd=%s\n\r", numBuf);
 301:main.c        ****                         XBEE_PutString(outputBuf);
 302:main.c        ****                         LCD_PrintString(outputBuf);
 303:main.c        ****                         break;
 304:main.c        ****                      
 305:main.c        ****                     // If k is pressed, print out the current constants and target speed    
 306:main.c        ****                     case 'k':
 307:main.c        ****                         LCD_Reset();
 308:main.c        ****                         sprintf(outputBuf, "kp=%i\n\rki=%i\n\rkd=%i\n\rtarget_speed=%i\n\r", (int)k
 309:main.c        ****                         XBEE_PutString(outputBuf);
 310:main.c        ****                         sprintf(outputBuf, "kp_servo=%i\n\rki_servo=%i\n\rkd_servo=%i\n\rcenter_ang
 311:main.c        ****                         XBEE_PutString(outputBuf);
 312:main.c        ****                         LCD_PrintString(outputBuf);
 313:main.c        ****                         break;
 314:main.c        ****                         
 315:main.c        ****                     // If a is pressed, turn 90
 316:main.c        ****                     case 'a':
 317:main.c        ****                         angle = (int)PID_SetVal(numBuf, numIndex, readBuf);
 318:main.c        ****                         sprintf(outputBuf, "a=%s\n\r", numBuf);
 319:main.c        ****                         XBEE_PutString(outputBuf);
 320:main.c        ****                         LCD_PrintString(outputBuf);
 321:main.c        ****                         Servo_PWM_WriteCompare(Servo_PWM_AngleCalc(angle));
 322:main.c        ****                         break;
 323:main.c        ****                         
 324:main.c        ****                      // If p is pressed, update the proportional constant 
 325:main.c        ****                     case 'r':
 326:main.c        ****                         LCD_Reset();
 327:main.c        ****                         kp_servo = PID_SetVal(numBuf, numIndex, readBuf);
 328:main.c        ****                         sprintf(outputBuf, "servo kp=%s\n\r", numBuf);
 329:main.c        ****                         XBEE_PutString(outputBuf);
 330:main.c        ****                         LCD_PrintString(outputBuf);
ARM GAS  C:\Users\ryant\AppData\Local\Temp\ccrSC7uO.s 			page 18


 331:main.c        ****                         break;
 332:main.c        ****                        
 333:main.c        ****                     // If i is pressed, update the integral constant     
 334:main.c        ****                     case 'n': 
 335:main.c        ****                         LCD_Reset();
 336:main.c        ****                         ki_servo = PID_SetVal(numBuf, numIndex,readBuf);
 337:main.c        ****                         sprintf(outputBuf, "servo ki=%s\n\r", numBuf);
 338:main.c        ****                         XBEE_PutString(outputBuf);
 339:main.c        ****                         LCD_PrintString(outputBuf);
 340:main.c        ****                         break;
 341:main.c        ****                     
 342:main.c        ****                     // If d is pressed, update the derivative constant 
 343:main.c        ****                     case 'e': 
 344:main.c        ****                         LCD_Reset();
 345:main.c        ****                         kd_servo = PID_SetVal(numBuf, numIndex,readBuf);
 346:main.c        ****                         sprintf(outputBuf, "servo kd=%s\n\r", numBuf);
 347:main.c        ****                         XBEE_PutString(outputBuf);
 348:main.c        ****                         LCD_PrintString(outputBuf);
 349:main.c        ****                         break;
 350:main.c        ****                         
 351:main.c        ****                     // If c is pressed, update the center angle   
 352:main.c        ****                     case 'c':
 353:main.c        ****                         LCD_Reset();
 354:main.c        ****                         CENTER_ANGLE = PID_SetVal(numBuf, numIndex,readBuf);
 355:main.c        ****                         sprintf(outputBuf, "center angle=%s\n\r", numBuf);
 356:main.c        ****                         XBEE_PutString(outputBuf);
 357:main.c        ****                         LCD_PrintString(outputBuf);
 358:main.c        ****                         break;
 359:main.c        ****                        
 360:main.c        ****                     case 'u':
 361:main.c        ****                         STEER_STATE = 0;
 362:main.c        ****                         LCD_Reset();
 363:main.c        ****                         sprintf(outputBuf, "steering stopped lol\n\r");
 364:main.c        ****                         XBEE_PutString(outputBuf);
 365:main.c        ****                         break;
 366:main.c        ****                         
 367:main.c        ****                     
 368:main.c        ****                     // Handle invalid input case
 369:main.c        ****                     default:
 370:main.c        ****                         LCD_Reset();
 371:main.c        ****                         LCD_PrintString("Invalid input.\n\r");
 372:main.c        ****                         XBEE_PutString("Sending data to arduino\n\r");
 373:main.c        ****                         break;
 374:main.c        ****                         
 375:main.c        ****                 }
 376:main.c        ****                 bufIndex = 0;
 608              		.loc 1 376 0
 609 0156 0024     		movs	r4, #0
 610              	.LVL102:
 611 0158 93E1     		b	.L23
 612              	.LVL103:
 613              	.L30:
 242:main.c        ****                         if (RUN_STATE == 0) {
 614              		.loc 1 242 0
 615 015a 0120     		movs	r0, #1
 616 015c FFF7FEFF 		bl	To_Pi_Write
 617              	.LVL104:
ARM GAS  C:\Users\ryant\AppData\Local\Temp\ccrSC7uO.s 			page 19


 243:main.c        ****                             RUN_STATE = 1;
 618              		.loc 1 243 0
 619 0160 514B     		ldr	r3, .L45+52
 620 0162 1B68     		ldr	r3, [r3]
 621 0164 002B     		cmp	r3, #0
 622 0166 40F08981 		bne	.L42
 244:main.c        ****                             STEER_STATE = 1;
 623              		.loc 1 244 0
 624 016a 0124     		movs	r4, #1
 625              	.LVL105:
 626 016c 4E4B     		ldr	r3, .L45+52
 627 016e 1C60     		str	r4, [r3]
 245:main.c        ****                             BALLOON_STATE = 1;
 628              		.loc 1 245 0
 629 0170 504B     		ldr	r3, .L45+64
 630 0172 1C60     		str	r4, [r3]
 246:main.c        ****                             LCD_Reset();
 631              		.loc 1 246 0
 632 0174 504B     		ldr	r3, .L45+68
 633 0176 1C60     		str	r4, [r3]
 247:main.c        ****                             LCD_PrintString("----GO----");
 634              		.loc 1 247 0
 635 0178 FFF7FEFF 		bl	LCD_Reset
 636              	.LVL106:
 248:main.c        ****                             XBEE_PutString("----GO----\n\r");
 637              		.loc 1 248 0
 638 017c 4F48     		ldr	r0, .L45+72
 639 017e FFF7FEFF 		bl	LCD_PrintString
 640              	.LVL107:
 249:main.c        ****                             prev_error = 0;
 641              		.loc 1 249 0
 642 0182 4F48     		ldr	r0, .L45+76
 643 0184 FFF7FEFF 		bl	XBEE_PutString
 644              	.LVL108:
 250:main.c        ****                             prev_i_term = 0;
 645              		.loc 1 250 0
 646 0188 434A     		ldr	r2, .L45+36
 647 018a 0023     		movs	r3, #0
 648 018c 5360     		str	r3, [r2, #4]	@ float
 251:main.c        ****                             prev_error_servo = 0;
 649              		.loc 1 251 0
 650 018e 1360     		str	r3, [r2]	@ float
 252:main.c        ****                             prev_i_term_servo = 0;
 651              		.loc 1 252 0
 652 0190 424A     		ldr	r2, .L45+40
 653 0192 1360     		str	r3, [r2]	@ float
 253:main.c        ****                             PWM_Motor_WriteCompare(START_PWM);
 654              		.loc 1 253 0
 655 0194 424A     		ldr	r2, .L45+44
 656 0196 1360     		str	r3, [r2]	@ float
 254:main.c        ****                             Counter_Reset_Write(1);
 657              		.loc 1 254 0
 658 0198 FF20     		movs	r0, #255
 659 019a FFF7FEFF 		bl	PWM_Motor_WriteCompare
 660              	.LVL109:
 255:main.c        ****                             Counter_Reset_Write(0);
 661              		.loc 1 255 0
ARM GAS  C:\Users\ryant\AppData\Local\Temp\ccrSC7uO.s 			page 20


 662 019e 2046     		mov	r0, r4
 663 01a0 FFF7FEFF 		bl	Counter_Reset_Write
 664              	.LVL110:
 256:main.c        ****                         }
 665              		.loc 1 256 0
 666 01a4 0020     		movs	r0, #0
 667 01a6 FFF7FEFF 		bl	Counter_Reset_Write
 668              	.LVL111:
 669              		.loc 1 376 0
 670 01aa 0024     		movs	r4, #0
 671 01ac 69E1     		b	.L23
 672              	.LVL112:
 673              	.L36:
 263:main.c        ****                         if (RUN_STATE == 1) {
 674              		.loc 1 263 0
 675 01ae 0020     		movs	r0, #0
 676 01b0 FFF7FEFF 		bl	To_Pi_Write
 677              	.LVL113:
 264:main.c        ****                             RUN_STATE = 0;
 678              		.loc 1 264 0
 679 01b4 3C4B     		ldr	r3, .L45+52
 680 01b6 1B68     		ldr	r3, [r3]
 681 01b8 012B     		cmp	r3, #1
 682 01ba 40F06181 		bne	.L43
 265:main.c        ****                             BALLOON_STATE = 0;
 683              		.loc 1 265 0
 684 01be 0024     		movs	r4, #0
 685              	.LVL114:
 686 01c0 394B     		ldr	r3, .L45+52
 687 01c2 1C60     		str	r4, [r3]
 266:main.c        ****                             LCD_Reset();
 688              		.loc 1 266 0
 689 01c4 3C4B     		ldr	r3, .L45+68
 690 01c6 1C60     		str	r4, [r3]
 267:main.c        ****                             LCD_PrintString("----STOP----");
 691              		.loc 1 267 0
 692 01c8 FFF7FEFF 		bl	LCD_Reset
 693              	.LVL115:
 268:main.c        ****                             PWM_Motor_WriteCompare(STOP_PWM);
 694              		.loc 1 268 0
 695 01cc 3D48     		ldr	r0, .L45+80
 696 01ce FFF7FEFF 		bl	LCD_PrintString
 697              	.LVL116:
 269:main.c        ****                             XBEE_PutString("----STOP----\n\r");
 698              		.loc 1 269 0
 699 01d2 2046     		mov	r0, r4
 700 01d4 FFF7FEFF 		bl	PWM_Motor_WriteCompare
 701              	.LVL117:
 270:main.c        ****                             prev_error = 0;
 702              		.loc 1 270 0
 703 01d8 3B48     		ldr	r0, .L45+84
 704 01da FFF7FEFF 		bl	XBEE_PutString
 705              	.LVL118:
 271:main.c        ****                             prev_i_term = 0;
 706              		.loc 1 271 0
 707 01de 2E4A     		ldr	r2, .L45+36
 708 01e0 0023     		movs	r3, #0
ARM GAS  C:\Users\ryant\AppData\Local\Temp\ccrSC7uO.s 			page 21


 709 01e2 5360     		str	r3, [r2, #4]	@ float
 272:main.c        ****                             prev_error_servo = 0;
 710              		.loc 1 272 0
 711 01e4 1360     		str	r3, [r2]	@ float
 273:main.c        ****                             prev_i_term_servo = 0;
 712              		.loc 1 273 0
 713 01e6 2D4A     		ldr	r2, .L45+40
 714 01e8 1360     		str	r3, [r2]	@ float
 274:main.c        ****                         }
 715              		.loc 1 274 0
 716 01ea 2D4A     		ldr	r2, .L45+44
 717 01ec 1360     		str	r3, [r2]	@ float
 718 01ee 48E1     		b	.L23
 719              	.LVL119:
 720              	.L34:
 280:main.c        ****                         kp = PID_SetVal(numBuf, numIndex,readBuf);
 721              		.loc 1 280 0
 722 01f0 FFF7FEFF 		bl	LCD_Reset
 723              	.LVL120:
 281:main.c        ****                         sprintf(outputBuf, "kp=%s\n\r", numBuf);
 724              		.loc 1 281 0
 725 01f4 22AA     		add	r2, sp, #136
 726 01f6 0021     		movs	r1, #0
 727 01f8 02A8     		add	r0, sp, #8
 728 01fa FFF7FEFF 		bl	PID_SetVal
 729              	.LVL121:
 730 01fe 2B4B     		ldr	r3, .L45+56
 731 0200 5860     		str	r0, [r3, #4]	@ float
 282:main.c        ****                         XBEE_PutString(outputBuf);
 732              		.loc 1 282 0
 733 0202 02AA     		add	r2, sp, #8
 734 0204 3149     		ldr	r1, .L45+88
 735 0206 12A8     		add	r0, sp, #72
 736 0208 FFF7FEFF 		bl	sprintf
 737              	.LVL122:
 283:main.c        ****                         LCD_PrintString(outputBuf);
 738              		.loc 1 283 0
 739 020c 12A8     		add	r0, sp, #72
 740 020e FFF7FEFF 		bl	XBEE_PutString
 741              	.LVL123:
 284:main.c        ****                         break;
 742              		.loc 1 284 0
 743 0212 12A8     		add	r0, sp, #72
 744 0214 FFF7FEFF 		bl	LCD_PrintString
 745              	.LVL124:
 746              		.loc 1 376 0
 747 0218 0024     		movs	r4, #0
 748              	.LVL125:
 285:main.c        ****                        
 749              		.loc 1 285 0
 750 021a 32E1     		b	.L23
 751              	.LVL126:
 752              	.L31:
 289:main.c        ****                         ki = PID_SetVal(numBuf, numIndex,readBuf);
 753              		.loc 1 289 0
 754 021c FFF7FEFF 		bl	LCD_Reset
 755              	.LVL127:
ARM GAS  C:\Users\ryant\AppData\Local\Temp\ccrSC7uO.s 			page 22


 290:main.c        ****                         sprintf(outputBuf, "ki=%s\n\r", numBuf);
 756              		.loc 1 290 0
 757 0220 22AA     		add	r2, sp, #136
 758 0222 0021     		movs	r1, #0
 759 0224 02A8     		add	r0, sp, #8
 760 0226 FFF7FEFF 		bl	PID_SetVal
 761              	.LVL128:
 762 022a 204B     		ldr	r3, .L45+56
 763 022c 9860     		str	r0, [r3, #8]	@ float
 291:main.c        ****                         XBEE_PutString(outputBuf);
 764              		.loc 1 291 0
 765 022e 02AA     		add	r2, sp, #8
 766 0230 2749     		ldr	r1, .L45+92
 767 0232 12A8     		add	r0, sp, #72
 768 0234 FFF7FEFF 		bl	sprintf
 769              	.LVL129:
 292:main.c        ****                         LCD_PrintString(outputBuf);
 770              		.loc 1 292 0
 771 0238 12A8     		add	r0, sp, #72
 772 023a FFF7FEFF 		bl	XBEE_PutString
 773              	.LVL130:
 293:main.c        ****                         break;
 774              		.loc 1 293 0
 775 023e 12A8     		add	r0, sp, #72
 776 0240 FFF7FEFF 		bl	LCD_PrintString
 777              	.LVL131:
 778              		.loc 1 376 0
 779 0244 0024     		movs	r4, #0
 780              	.LVL132:
 294:main.c        ****                     
 781              		.loc 1 294 0
 782 0246 1CE1     		b	.L23
 783              	.LVL133:
 784              	.L28:
 298:main.c        ****                         kd = PID_SetVal(numBuf, numIndex,readBuf);
 785              		.loc 1 298 0
 786 0248 FFF7FEFF 		bl	LCD_Reset
 787              	.LVL134:
 299:main.c        ****                         sprintf(outputBuf, "kd=%s\n\r", numBuf);
 788              		.loc 1 299 0
 789 024c 22AA     		add	r2, sp, #136
 790 024e 0021     		movs	r1, #0
 791 0250 02A8     		add	r0, sp, #8
 792 0252 FFF7FEFF 		bl	PID_SetVal
 793              	.LVL135:
 794 0256 104B     		ldr	r3, .L45+36
 795 0258 9860     		str	r0, [r3, #8]	@ float
 300:main.c        ****                         XBEE_PutString(outputBuf);
 796              		.loc 1 300 0
 797 025a 02AA     		add	r2, sp, #8
 798 025c 1D49     		ldr	r1, .L45+96
 799 025e 12A8     		add	r0, sp, #72
 800 0260 FFF7FEFF 		bl	sprintf
 801              	.LVL136:
 301:main.c        ****                         LCD_PrintString(outputBuf);
 802              		.loc 1 301 0
 803 0264 12A8     		add	r0, sp, #72
ARM GAS  C:\Users\ryant\AppData\Local\Temp\ccrSC7uO.s 			page 23


 804 0266 FFF7FEFF 		bl	XBEE_PutString
 805              	.LVL137:
 302:main.c        ****                         break;
 806              		.loc 1 302 0
 807 026a 12A8     		add	r0, sp, #72
 808 026c FFF7FEFF 		bl	LCD_PrintString
 809              	.LVL138:
 810              		.loc 1 376 0
 811 0270 0024     		movs	r4, #0
 812              	.LVL139:
 303:main.c        ****                      
 813              		.loc 1 303 0
 814 0272 06E1     		b	.L23
 815              	.L46:
 816              		.align	2
 817              	.L45:
 818 0274 00000000 		.word	inter
 819 0278 00000000 		.word	V_Sync_ISR
 820 027c 00000000 		.word	H_Sync_ISR
 821 0280 00000000 		.word	Line_Int_ISR
 822 0284 00000000 		.word	Porch_Int_ISR
 823 0288 00000000 		.word	Go_Again_Int_ISR
 824 028c 00000000 		.word	CENTER_ANGLE
 825 0290 00000000 		.word	.LC0
 826 0294 18000000 		.word	.LC1
 827 0298 00000000 		.word	.LANCHOR1
 828 029c 00000000 		.word	prev_error_servo
 829 02a0 00000000 		.word	prev_i_term_servo
 830 02a4 28000000 		.word	.LC2
 831 02a8 00000000 		.word	RUN_STATE
 832 02ac 00000000 		.word	.LANCHOR0
 833 02b0 38000000 		.word	.LC3
 834 02b4 00000000 		.word	STEER_STATE
 835 02b8 00000000 		.word	BALLOON_STATE
 836 02bc 54000000 		.word	.LC4
 837 02c0 60000000 		.word	.LC5
 838 02c4 70000000 		.word	.LC6
 839 02c8 80000000 		.word	.LC7
 840 02cc 90000000 		.word	.LC8
 841 02d0 98000000 		.word	.LC9
 842 02d4 A0000000 		.word	.LC10
 843              	.LVL140:
 844              	.L32:
 307:main.c        ****                         sprintf(outputBuf, "kp=%i\n\rki=%i\n\rkd=%i\n\rtarget_speed=%i\n\r", (int)k
 845              		.loc 1 307 0
 846 02d8 FFF7FEFF 		bl	LCD_Reset
 847              	.LVL141:
 308:main.c        ****                         XBEE_PutString(outputBuf);
 848              		.loc 1 308 0
 849 02dc 6F4C     		ldr	r4, .L47
 850              	.LVL142:
 851 02de A068     		ldr	r0, [r4, #8]	@ float
 852 02e0 FFF7FEFF 		bl	__aeabi_f2iz
 853              	.LVL143:
 854 02e4 0646     		mov	r6, r0
 855 02e6 6068     		ldr	r0, [r4, #4]	@ float
 856 02e8 FFF7FEFF 		bl	__aeabi_f2iz
ARM GAS  C:\Users\ryant\AppData\Local\Temp\ccrSC7uO.s 			page 24


 857              	.LVL144:
 858 02ec 0546     		mov	r5, r0
 859 02ee 2068     		ldr	r0, [r4]	@ float
 860 02f0 FFF7FEFF 		bl	__aeabi_f2iz
 861              	.LVL145:
 862 02f4 0190     		str	r0, [sp, #4]
 863 02f6 6A4B     		ldr	r3, .L47+4
 864 02f8 9868     		ldr	r0, [r3, #8]	@ float
 865 02fa FFF7FEFF 		bl	__aeabi_f2iz
 866              	.LVL146:
 867 02fe 0090     		str	r0, [sp]
 868 0300 3346     		mov	r3, r6
 869 0302 2A46     		mov	r2, r5
 870 0304 6749     		ldr	r1, .L47+8
 871 0306 12A8     		add	r0, sp, #72
 872 0308 FFF7FEFF 		bl	sprintf
 873              	.LVL147:
 309:main.c        ****                         sprintf(outputBuf, "kp_servo=%i\n\rki_servo=%i\n\rkd_servo=%i\n\rcenter_ang
 874              		.loc 1 309 0
 875 030c 12A8     		add	r0, sp, #72
 876 030e FFF7FEFF 		bl	XBEE_PutString
 877              	.LVL148:
 310:main.c        ****                         XBEE_PutString(outputBuf);
 878              		.loc 1 310 0
 879 0312 654B     		ldr	r3, .L47+12
 880 0314 1868     		ldr	r0, [r3]	@ float
 881 0316 FFF7FEFF 		bl	__aeabi_f2iz
 882              	.LVL149:
 883 031a 0546     		mov	r5, r0
 884 031c 634B     		ldr	r3, .L47+16
 885 031e 1868     		ldr	r0, [r3]	@ float
 886 0320 FFF7FEFF 		bl	__aeabi_f2iz
 887              	.LVL150:
 888 0324 0446     		mov	r4, r0
 889 0326 624B     		ldr	r3, .L47+20
 890 0328 1B68     		ldr	r3, [r3]
 891 032a 0193     		str	r3, [sp, #4]
 892 032c 614B     		ldr	r3, .L47+24
 893 032e 1868     		ldr	r0, [r3]	@ float
 894 0330 FFF7FEFF 		bl	__aeabi_f2iz
 895              	.LVL151:
 896 0334 0090     		str	r0, [sp]
 897 0336 2B46     		mov	r3, r5
 898 0338 2246     		mov	r2, r4
 899 033a 5F49     		ldr	r1, .L47+28
 900 033c 12A8     		add	r0, sp, #72
 901 033e FFF7FEFF 		bl	sprintf
 902              	.LVL152:
 311:main.c        ****                         LCD_PrintString(outputBuf);
 903              		.loc 1 311 0
 904 0342 12A8     		add	r0, sp, #72
 905 0344 FFF7FEFF 		bl	XBEE_PutString
 906              	.LVL153:
 312:main.c        ****                         break;
 907              		.loc 1 312 0
 908 0348 12A8     		add	r0, sp, #72
 909 034a FFF7FEFF 		bl	LCD_PrintString
ARM GAS  C:\Users\ryant\AppData\Local\Temp\ccrSC7uO.s 			page 25


 910              	.LVL154:
 911              		.loc 1 376 0
 912 034e 0024     		movs	r4, #0
 313:main.c        ****                         
 913              		.loc 1 313 0
 914 0350 97E0     		b	.L23
 915              	.LVL155:
 916              	.L25:
 317:main.c        ****                         sprintf(outputBuf, "a=%s\n\r", numBuf);
 917              		.loc 1 317 0
 918 0352 22AA     		add	r2, sp, #136
 919 0354 0021     		movs	r1, #0
 920 0356 02A8     		add	r0, sp, #8
 921 0358 FFF7FEFF 		bl	PID_SetVal
 922              	.LVL156:
 923 035c FFF7FEFF 		bl	__aeabi_f2iz
 924              	.LVL157:
 925 0360 0446     		mov	r4, r0
 926              	.LVL158:
 318:main.c        ****                         XBEE_PutString(outputBuf);
 927              		.loc 1 318 0
 928 0362 02AA     		add	r2, sp, #8
 929 0364 5549     		ldr	r1, .L47+32
 930 0366 12A8     		add	r0, sp, #72
 931              	.LVL159:
 932 0368 FFF7FEFF 		bl	sprintf
 933              	.LVL160:
 319:main.c        ****                         LCD_PrintString(outputBuf);
 934              		.loc 1 319 0
 935 036c 12A8     		add	r0, sp, #72
 936 036e FFF7FEFF 		bl	XBEE_PutString
 937              	.LVL161:
 320:main.c        ****                         Servo_PWM_WriteCompare(Servo_PWM_AngleCalc(angle));
 938              		.loc 1 320 0
 939 0372 12A8     		add	r0, sp, #72
 940 0374 FFF7FEFF 		bl	LCD_PrintString
 941              	.LVL162:
 321:main.c        ****                         break;
 942              		.loc 1 321 0
 943 0378 2046     		mov	r0, r4
 944 037a FFF7FEFF 		bl	Servo_PWM_AngleCalc
 945              	.LVL163:
 946 037e FFF7FEFF 		bl	Servo_PWM_WriteCompare
 947              	.LVL164:
 948              		.loc 1 376 0
 949 0382 0024     		movs	r4, #0
 950              	.LVL165:
 322:main.c        ****                         
 951              		.loc 1 322 0
 952 0384 7DE0     		b	.L23
 953              	.LVL166:
 954              	.L35:
 326:main.c        ****                         kp_servo = PID_SetVal(numBuf, numIndex, readBuf);
 955              		.loc 1 326 0
 956 0386 FFF7FEFF 		bl	LCD_Reset
 957              	.LVL167:
 327:main.c        ****                         sprintf(outputBuf, "servo kp=%s\n\r", numBuf);
ARM GAS  C:\Users\ryant\AppData\Local\Temp\ccrSC7uO.s 			page 26


 958              		.loc 1 327 0
 959 038a 22AA     		add	r2, sp, #136
 960 038c 0021     		movs	r1, #0
 961 038e 02A8     		add	r0, sp, #8
 962 0390 FFF7FEFF 		bl	PID_SetVal
 963              	.LVL168:
 964 0394 454B     		ldr	r3, .L47+16
 965 0396 1860     		str	r0, [r3]	@ float
 328:main.c        ****                         XBEE_PutString(outputBuf);
 966              		.loc 1 328 0
 967 0398 02AA     		add	r2, sp, #8
 968 039a 4949     		ldr	r1, .L47+36
 969 039c 12A8     		add	r0, sp, #72
 970 039e FFF7FEFF 		bl	sprintf
 971              	.LVL169:
 329:main.c        ****                         LCD_PrintString(outputBuf);
 972              		.loc 1 329 0
 973 03a2 12A8     		add	r0, sp, #72
 974 03a4 FFF7FEFF 		bl	XBEE_PutString
 975              	.LVL170:
 330:main.c        ****                         break;
 976              		.loc 1 330 0
 977 03a8 12A8     		add	r0, sp, #72
 978 03aa FFF7FEFF 		bl	LCD_PrintString
 979              	.LVL171:
 980              		.loc 1 376 0
 981 03ae 0024     		movs	r4, #0
 982              	.LVL172:
 331:main.c        ****                        
 983              		.loc 1 331 0
 984 03b0 67E0     		b	.L23
 985              	.LVL173:
 986              	.L33:
 335:main.c        ****                         ki_servo = PID_SetVal(numBuf, numIndex,readBuf);
 987              		.loc 1 335 0
 988 03b2 FFF7FEFF 		bl	LCD_Reset
 989              	.LVL174:
 336:main.c        ****                         sprintf(outputBuf, "servo ki=%s\n\r", numBuf);
 990              		.loc 1 336 0
 991 03b6 22AA     		add	r2, sp, #136
 992 03b8 0021     		movs	r1, #0
 993 03ba 02A8     		add	r0, sp, #8
 994 03bc FFF7FEFF 		bl	PID_SetVal
 995              	.LVL175:
 996 03c0 394B     		ldr	r3, .L47+12
 997 03c2 1860     		str	r0, [r3]	@ float
 337:main.c        ****                         XBEE_PutString(outputBuf);
 998              		.loc 1 337 0
 999 03c4 02AA     		add	r2, sp, #8
 1000 03c6 3F49     		ldr	r1, .L47+40
 1001 03c8 12A8     		add	r0, sp, #72
 1002 03ca FFF7FEFF 		bl	sprintf
 1003              	.LVL176:
 338:main.c        ****                         LCD_PrintString(outputBuf);
 1004              		.loc 1 338 0
 1005 03ce 12A8     		add	r0, sp, #72
 1006 03d0 FFF7FEFF 		bl	XBEE_PutString
ARM GAS  C:\Users\ryant\AppData\Local\Temp\ccrSC7uO.s 			page 27


 1007              	.LVL177:
 339:main.c        ****                         break;
 1008              		.loc 1 339 0
 1009 03d4 12A8     		add	r0, sp, #72
 1010 03d6 FFF7FEFF 		bl	LCD_PrintString
 1011              	.LVL178:
 1012              		.loc 1 376 0
 1013 03da 0024     		movs	r4, #0
 1014              	.LVL179:
 340:main.c        ****                     
 1015              		.loc 1 340 0
 1016 03dc 51E0     		b	.L23
 1017              	.LVL180:
 1018              	.L29:
 344:main.c        ****                         kd_servo = PID_SetVal(numBuf, numIndex,readBuf);
 1019              		.loc 1 344 0
 1020 03de FFF7FEFF 		bl	LCD_Reset
 1021              	.LVL181:
 345:main.c        ****                         sprintf(outputBuf, "servo kd=%s\n\r", numBuf);
 1022              		.loc 1 345 0
 1023 03e2 22AA     		add	r2, sp, #136
 1024 03e4 0021     		movs	r1, #0
 1025 03e6 02A8     		add	r0, sp, #8
 1026 03e8 FFF7FEFF 		bl	PID_SetVal
 1027              	.LVL182:
 1028 03ec 314B     		ldr	r3, .L47+24
 1029 03ee 1860     		str	r0, [r3]	@ float
 346:main.c        ****                         XBEE_PutString(outputBuf);
 1030              		.loc 1 346 0
 1031 03f0 02AA     		add	r2, sp, #8
 1032 03f2 3549     		ldr	r1, .L47+44
 1033 03f4 12A8     		add	r0, sp, #72
 1034 03f6 FFF7FEFF 		bl	sprintf
 1035              	.LVL183:
 347:main.c        ****                         LCD_PrintString(outputBuf);
 1036              		.loc 1 347 0
 1037 03fa 12A8     		add	r0, sp, #72
 1038 03fc FFF7FEFF 		bl	XBEE_PutString
 1039              	.LVL184:
 348:main.c        ****                         break;
 1040              		.loc 1 348 0
 1041 0400 12A8     		add	r0, sp, #72
 1042 0402 FFF7FEFF 		bl	LCD_PrintString
 1043              	.LVL185:
 1044              		.loc 1 376 0
 1045 0406 0024     		movs	r4, #0
 1046              	.LVL186:
 349:main.c        ****                         
 1047              		.loc 1 349 0
 1048 0408 3BE0     		b	.L23
 1049              	.LVL187:
 1050              	.L27:
 353:main.c        ****                         CENTER_ANGLE = PID_SetVal(numBuf, numIndex,readBuf);
 1051              		.loc 1 353 0
 1052 040a FFF7FEFF 		bl	LCD_Reset
 1053              	.LVL188:
 354:main.c        ****                         sprintf(outputBuf, "center angle=%s\n\r", numBuf);
ARM GAS  C:\Users\ryant\AppData\Local\Temp\ccrSC7uO.s 			page 28


 1054              		.loc 1 354 0
 1055 040e 22AA     		add	r2, sp, #136
 1056 0410 0021     		movs	r1, #0
 1057 0412 02A8     		add	r0, sp, #8
 1058 0414 FFF7FEFF 		bl	PID_SetVal
 1059              	.LVL189:
 1060 0418 FFF7FEFF 		bl	__aeabi_f2iz
 1061              	.LVL190:
 1062 041c 244B     		ldr	r3, .L47+20
 1063 041e 1860     		str	r0, [r3]
 355:main.c        ****                         XBEE_PutString(outputBuf);
 1064              		.loc 1 355 0
 1065 0420 02AA     		add	r2, sp, #8
 1066 0422 2A49     		ldr	r1, .L47+48
 1067 0424 12A8     		add	r0, sp, #72
 1068 0426 FFF7FEFF 		bl	sprintf
 1069              	.LVL191:
 356:main.c        ****                         LCD_PrintString(outputBuf);
 1070              		.loc 1 356 0
 1071 042a 12A8     		add	r0, sp, #72
 1072 042c FFF7FEFF 		bl	XBEE_PutString
 1073              	.LVL192:
 357:main.c        ****                         break;
 1074              		.loc 1 357 0
 1075 0430 12A8     		add	r0, sp, #72
 1076 0432 FFF7FEFF 		bl	LCD_PrintString
 1077              	.LVL193:
 1078              		.loc 1 376 0
 1079 0436 0024     		movs	r4, #0
 1080              	.LVL194:
 358:main.c        ****                        
 1081              		.loc 1 358 0
 1082 0438 23E0     		b	.L23
 1083              	.LVL195:
 1084              	.L38:
 361:main.c        ****                         LCD_Reset();
 1085              		.loc 1 361 0
 1086 043a 0024     		movs	r4, #0
 1087              	.LVL196:
 1088 043c 244B     		ldr	r3, .L47+52
 1089 043e 1C60     		str	r4, [r3]
 362:main.c        ****                         sprintf(outputBuf, "steering stopped lol\n\r");
 1090              		.loc 1 362 0
 1091 0440 FFF7FEFF 		bl	LCD_Reset
 1092              	.LVL197:
 363:main.c        ****                         XBEE_PutString(outputBuf);
 1093              		.loc 1 363 0
 1094 0444 12AD     		add	r5, sp, #72
 1095 0446 234E     		ldr	r6, .L47+56
 1096 0448 0FCE     		ldmia	r6!, {r0, r1, r2, r3}
 1097 044a 0FC5     		stmia	r5!, {r0, r1, r2, r3}
 1098 044c 96E80300 		ldmia	r6, {r0, r1}
 1099 0450 45F8040B 		str	r0, [r5], #4
 1100 0454 25F8021B 		strh	r1, [r5], #2	@ movhi
 1101 0458 090C     		lsrs	r1, r1, #16
 1102 045a 2970     		strb	r1, [r5]
 364:main.c        ****                         break;
ARM GAS  C:\Users\ryant\AppData\Local\Temp\ccrSC7uO.s 			page 29


 1103              		.loc 1 364 0
 1104 045c 12A8     		add	r0, sp, #72
 1105 045e FFF7FEFF 		bl	XBEE_PutString
 1106              	.LVL198:
 365:main.c        ****                         
 1107              		.loc 1 365 0
 1108 0462 0EE0     		b	.L23
 1109              	.LVL199:
 1110              	.L24:
 370:main.c        ****                         LCD_PrintString("Invalid input.\n\r");
 1111              		.loc 1 370 0
 1112 0464 FFF7FEFF 		bl	LCD_Reset
 1113              	.LVL200:
 371:main.c        ****                         XBEE_PutString("Sending data to arduino\n\r");
 1114              		.loc 1 371 0
 1115 0468 1B48     		ldr	r0, .L47+60
 1116 046a FFF7FEFF 		bl	LCD_PrintString
 1117              	.LVL201:
 372:main.c        ****                         break;
 1118              		.loc 1 372 0
 1119 046e 1B48     		ldr	r0, .L47+64
 1120 0470 FFF7FEFF 		bl	XBEE_PutString
 1121              	.LVL202:
 1122              		.loc 1 376 0
 1123 0474 0024     		movs	r4, #0
 1124              	.LVL203:
 373:main.c        ****                         
 1125              		.loc 1 373 0
 1126 0476 04E0     		b	.L23
 1127              	.LVL204:
 1128              	.L41:
 1129              		.loc 1 376 0
 1130 0478 0024     		movs	r4, #0
 1131              	.LVL205:
 1132 047a 02E0     		b	.L23
 1133              	.LVL206:
 1134              	.L42:
 1135 047c 0024     		movs	r4, #0
 1136              	.LVL207:
 1137 047e 00E0     		b	.L23
 1138              	.LVL208:
 1139              	.L43:
 1140 0480 0024     		movs	r4, #0
 1141              	.LVL209:
 1142              	.L23:
 377:main.c        ****             }
 378:main.c        ****             
 379:main.c        ****         }
 380:main.c        ****         
 381:main.c        ****         /* Clear the BUF */
 382:main.c        ****         if (bufIndex == BUF_SIZE) {
 1143              		.loc 1 382 0
 1144 0482 402C     		cmp	r4, #64
 1145 0484 7FF4FDAD 		bne	.L39
 383:main.c        ****             LCD_Reset();
 1146              		.loc 1 383 0
 1147 0488 FFF7FEFF 		bl	LCD_Reset
ARM GAS  C:\Users\ryant\AppData\Local\Temp\ccrSC7uO.s 			page 30


 1148              	.LVL210:
 384:main.c        ****             XBEE_PutString(readBuf);
 1149              		.loc 1 384 0
 1150 048c 22A8     		add	r0, sp, #136
 1151 048e FFF7FEFF 		bl	XBEE_PutString
 1152              	.LVL211:
 385:main.c        ****             LCD_PrintString(readBuf);
 1153              		.loc 1 385 0
 1154 0492 22A8     		add	r0, sp, #136
 1155 0494 FFF7FEFF 		bl	LCD_PrintString
 1156              	.LVL212:
 1157 0498 F2E5     		b	.L40
 1158              	.L48:
 1159 049a 00BF     		.align	2
 1160              	.L47:
 1161 049c 00000000 		.word	.LANCHOR0
 1162 04a0 00000000 		.word	.LANCHOR1
 1163 04a4 A8000000 		.word	.LC11
 1164 04a8 00000000 		.word	ki_servo
 1165 04ac 00000000 		.word	kp_servo
 1166 04b0 00000000 		.word	CENTER_ANGLE
 1167 04b4 00000000 		.word	kd_servo
 1168 04b8 D0000000 		.word	.LC12
 1169 04bc 0C010000 		.word	.LC13
 1170 04c0 14010000 		.word	.LC14
 1171 04c4 24010000 		.word	.LC15
 1172 04c8 34010000 		.word	.LC16
 1173 04cc 44010000 		.word	.LC17
 1174 04d0 00000000 		.word	STEER_STATE
 1175 04d4 58010000 		.word	.LC18
 1176 04d8 70010000 		.word	.LC19
 1177 04dc 84010000 		.word	.LC20
 1178              		.cfi_endproc
 1179              	.LFE69:
 1180              		.size	main, .-main
 1181              		.global	arduinoRunState
 1182              		.global	prevArduinoRunState
 1183              		.global	speed
 1184              		.global	prev_i_term
 1185              		.global	prev_error
 1186              		.global	kd
 1187              		.global	ki
 1188              		.global	kp
 1189              		.global	TARGET_SPEED
 1190              		.comm	BALLOON_STATE,4,4
 1191              		.comm	RUN_STATE,4,4
 1192              		.comm	CENTER_ANGLE,4,4
 1193              		.comm	STEER_STATE,4,4
 1194              		.comm	prev_i_term_servo,4,4
 1195              		.comm	prev_error_servo,4,4
 1196              		.comm	kd_servo,4,4
 1197              		.comm	ki_servo,4,4
 1198              		.comm	kp_servo,4,4
 1199              		.data
 1200              		.align	2
 1201              		.set	.LANCHOR0,. + 0
 1202              		.type	TARGET_SPEED, %object
ARM GAS  C:\Users\ryant\AppData\Local\Temp\ccrSC7uO.s 			page 31


 1203              		.size	TARGET_SPEED, 4
 1204              	TARGET_SPEED:
 1205 0000 00008040 		.word	1082130432
 1206              		.type	kp, %object
 1207              		.size	kp, 4
 1208              	kp:
 1209 0004 0000C842 		.word	1120403456
 1210              		.type	ki, %object
 1211              		.size	ki, 4
 1212              	ki:
 1213 0008 00002041 		.word	1092616192
 1214              		.section	.rodata.str1.4,"aMS",%progbits,1
 1215              		.align	2
 1216              	.LC0:
 1217 0000 436F6E6E 		.ascii	"Connection success\012\015\000"
 1217      65637469 
 1217      6F6E2073 
 1217      75636365 
 1217      73730A0D 
 1218 0015 000000   		.space	3
 1219              	.LC1:
 1220 0018 496E6974 		.ascii	"Initialized.\000"
 1220      69616C69 
 1220      7A65642E 
 1220      00
 1221 0025 000000   		.space	3
 1222              	.LC2:
 1223 0028 56616C75 		.ascii	"Value entered\000"
 1223      6520656E 
 1223      74657265 
 1223      6400
 1224 0036 0000     		.space	2
 1225              	.LC3:
 1226 0038 54617267 		.ascii	"Target speed set to %i\012\015\000"
 1226      65742073 
 1226      70656564 
 1226      20736574 
 1226      20746F20 
 1227 0051 000000   		.space	3
 1228              	.LC4:
 1229 0054 2D2D2D2D 		.ascii	"----GO----\000"
 1229      474F2D2D 
 1229      2D2D00
 1230 005f 00       		.space	1
 1231              	.LC5:
 1232 0060 2D2D2D2D 		.ascii	"----GO----\012\015\000"
 1232      474F2D2D 
 1232      2D2D0A0D 
 1232      00
 1233 006d 000000   		.space	3
 1234              	.LC6:
 1235 0070 2D2D2D2D 		.ascii	"----STOP----\000"
 1235      53544F50 
 1235      2D2D2D2D 
 1235      00
 1236 007d 000000   		.space	3
 1237              	.LC7:
ARM GAS  C:\Users\ryant\AppData\Local\Temp\ccrSC7uO.s 			page 32


 1238 0080 2D2D2D2D 		.ascii	"----STOP----\012\015\000"
 1238      53544F50 
 1238      2D2D2D2D 
 1238      0A0D00
 1239 008f 00       		.space	1
 1240              	.LC8:
 1241 0090 6B703D25 		.ascii	"kp=%s\012\015\000"
 1241      730A0D00 
 1242              	.LC9:
 1243 0098 6B693D25 		.ascii	"ki=%s\012\015\000"
 1243      730A0D00 
 1244              	.LC10:
 1245 00a0 6B643D25 		.ascii	"kd=%s\012\015\000"
 1245      730A0D00 
 1246              	.LC11:
 1247 00a8 6B703D25 		.ascii	"kp=%i\012\015ki=%i\012\015kd=%i\012\015target_speed"
 1247      690A0D6B 
 1247      693D2569 
 1247      0A0D6B64 
 1247      3D25690A 
 1248 00c9 3D25690A 		.ascii	"=%i\012\015\000"
 1248      0D00
 1249 00cf 00       		.space	1
 1250              	.LC12:
 1251 00d0 6B705F73 		.ascii	"kp_servo=%i\012\015ki_servo=%i\012\015kd_servo=%i\012"
 1251      6572766F 
 1251      3D25690A 
 1251      0D6B695F 
 1251      73657276 
 1252 00f6 0D63656E 		.ascii	"\015center_angle=%i\012\015\000"
 1252      7465725F 
 1252      616E676C 
 1252      653D2569 
 1252      0A0D00
 1253 0109 000000   		.space	3
 1254              	.LC13:
 1255 010c 613D2573 		.ascii	"a=%s\012\015\000"
 1255      0A0D00
 1256 0113 00       		.space	1
 1257              	.LC14:
 1258 0114 73657276 		.ascii	"servo kp=%s\012\015\000"
 1258      6F206B70 
 1258      3D25730A 
 1258      0D00
 1259 0122 0000     		.space	2
 1260              	.LC15:
 1261 0124 73657276 		.ascii	"servo ki=%s\012\015\000"
 1261      6F206B69 
 1261      3D25730A 
 1261      0D00
 1262 0132 0000     		.space	2
 1263              	.LC16:
 1264 0134 73657276 		.ascii	"servo kd=%s\012\015\000"
 1264      6F206B64 
 1264      3D25730A 
 1264      0D00
 1265 0142 0000     		.space	2
ARM GAS  C:\Users\ryant\AppData\Local\Temp\ccrSC7uO.s 			page 33


 1266              	.LC17:
 1267 0144 63656E74 		.ascii	"center angle=%s\012\015\000"
 1267      65722061 
 1267      6E676C65 
 1267      3D25730A 
 1267      0D00
 1268 0156 0000     		.space	2
 1269              	.LC18:
 1270 0158 73746565 		.ascii	"steering stopped lol\012\015\000"
 1270      72696E67 
 1270      2073746F 
 1270      70706564 
 1270      206C6F6C 
 1271 016f 00       		.space	1
 1272              	.LC19:
 1273 0170 496E7661 		.ascii	"Invalid input.\012\015\000"
 1273      6C696420 
 1273      696E7075 
 1273      742E0A0D 
 1273      00
 1274 0181 000000   		.space	3
 1275              	.LC20:
 1276 0184 53656E64 		.ascii	"Sending data to arduino\012\015\000"
 1276      696E6720 
 1276      64617461 
 1276      20746F20 
 1276      61726475 
 1277              		.bss
 1278              		.align	2
 1279              		.set	.LANCHOR1,. + 0
 1280              		.type	prev_i_term, %object
 1281              		.size	prev_i_term, 4
 1282              	prev_i_term:
 1283 0000 00000000 		.space	4
 1284              		.type	prev_error, %object
 1285              		.size	prev_error, 4
 1286              	prev_error:
 1287 0004 00000000 		.space	4
 1288              		.type	kd, %object
 1289              		.size	kd, 4
 1290              	kd:
 1291 0008 00000000 		.space	4
 1292              		.type	arduinoRunState, %object
 1293              		.size	arduinoRunState, 4
 1294              	arduinoRunState:
 1295 000c 00000000 		.space	4
 1296              		.type	speed, %object
 1297              		.size	speed, 4
 1298              	speed:
 1299 0010 00000000 		.space	4
 1300              		.type	prevArduinoRunState, %object
 1301              		.size	prevArduinoRunState, 4
 1302              	prevArduinoRunState:
 1303 0014 00000000 		.space	4
 1304              		.text
 1305              	.Letext0:
 1306              		.file 2 "c:\\program files (x86)\\cypress\\psoc creator\\4.2\\psoc creator\\import\\gnu\\arm\\5.4.
ARM GAS  C:\Users\ryant\AppData\Local\Temp\ccrSC7uO.s 			page 34


 1307              		.file 3 "c:\\program files (x86)\\cypress\\psoc creator\\4.2\\psoc creator\\import\\gnu\\arm\\5.4.
 1308              		.file 4 "Generated_Source\\PSoC5/cytypes.h"
 1309              		.file 5 "Generated_Source\\PSoC5/core_cm3.h"
 1310              		.file 6 "nav_control.h"
 1311              		.file 7 "balloon.h"
 1312              		.file 8 "c:\\program files (x86)\\cypress\\psoc creator\\4.2\\psoc creator\\import\\gnu\\arm\\5.4.
 1313              		.file 9 "Generated_Source\\PSoC5/Counter.h"
 1314              		.file 10 "Generated_Source\\PSoC5/Counter_Reset.h"
 1315              		.file 11 "Generated_Source\\PSoC5/To_Pi.h"
 1316              		.file 12 "Generated_Source\\PSoC5/PWM_Motor.h"
 1317              		.file 13 "Generated_Source\\PSoC5/LCD.h"
 1318              		.file 14 "Generated_Source\\PSoC5/XBEE.h"
 1319              		.file 15 "Generated_Source\\PSoC5/Hall_Interrupt.h"
 1320              		.file 16 "Generated_Source\\PSoC5/Counter_Interrupt.h"
 1321              		.file 17 "Generated_Source\\PSoC5/V_Sync_Int.h"
 1322              		.file 18 "Generated_Source\\PSoC5/H_Sync_Int.h"
 1323              		.file 19 "Generated_Source\\PSoC5/Servo_PWM.h"
 1324              		.file 20 "Generated_Source\\PSoC5/Threshold_Comparator.h"
 1325              		.file 21 "Generated_Source\\PSoC5/Line_Timer.h"
 1326              		.file 22 "Generated_Source\\PSoC5/Line_Int.h"
 1327              		.file 23 "Generated_Source\\PSoC5/Porch_Int.h"
 1328              		.file 24 "Generated_Source\\PSoC5/Go_Again_Int.h"
 1329              		.file 25 "Generated_Source\\PSoC5/From_Pi.h"
 1330              		.file 26 "c:\\program files (x86)\\cypress\\psoc creator\\4.2\\psoc creator\\import\\gnu\\arm\\5.4