ARM GAS  C:\Users\ryant\AppData\Local\Temp\cc4RVoga.s 			page 1


   1              		.syntax unified
   2              		.cpu cortex-m3
   3              		.fpu softvfp
   4              		.eabi_attribute 20, 1
   5              		.eabi_attribute 21, 1
   6              		.eabi_attribute 23, 3
   7              		.eabi_attribute 24, 1
   8              		.eabi_attribute 25, 1
   9              		.eabi_attribute 26, 1
  10              		.eabi_attribute 30, 1
  11              		.eabi_attribute 34, 1
  12              		.eabi_attribute 18, 4
  13              		.thumb
  14              		.syntax unified
  15              		.file	"nav_control.c"
  16              		.text
  17              	.Ltext0:
  18              		.cfi_sections	.debug_frame
  19              		.section	.text.Servo_PWM_AngleCalc,"ax",%progbits
  20              		.align	2
  21              		.global	Servo_PWM_AngleCalc
  22              		.thumb
  23              		.thumb_func
  24              		.type	Servo_PWM_AngleCalc, %function
  25              	Servo_PWM_AngleCalc:
  26              	.LFB64:
  27              		.file 1 "nav_control.c"
   1:nav_control.c **** 
   2:nav_control.c **** #include "project.h"
   3:nav_control.c **** #include <stdio.h>
   4:nav_control.c **** #include <stdlib.h>
   5:nav_control.c **** #include <math.h>
   6:nav_control.c **** #include <string.h>
   7:nav_control.c **** #include "cyapicallbacks.h"
   8:nav_control.c **** #include "math.h"
   9:nav_control.c **** #include "balloon.h"
  10:nav_control.c **** 
  11:nav_control.c **** 
  12:nav_control.c **** #define BUF_SIZE 64 // For writing 
  13:nav_control.c **** #define MIN_ANGLE 0 // minimum angle
  14:nav_control.c **** #define MAX_ANGLE 180 // maximum angle
  15:nav_control.c **** #define MIN_SERVO_PWM 1310 // minimum servo pwm
  16:nav_control.c **** #define MAX_SERVO_PWM 2620 // maximum servo pwm
  17:nav_control.c **** #define LEFT_POSITION 0 // smallest angle servos can tolerate 
  18:nav_control.c **** #define RIGHT_POSITION 150 // largest angle servos can tolerate 
  19:nav_control.c **** 
  20:nav_control.c **** #define FRAME_HEIGHT 240 // max number of rows in frame
  21:nav_control.c **** #define FRAME_WIDTH 320 // max number of columns in frame
  22:nav_control.c **** #define MAX_H_PULSES 9 // number of h pulses to wait for until in frame
  23:nav_control.c **** #define V_SYNC_WAIT 0 // state name for v sync waiting
  24:nav_control.c **** #define FRAME_WAIT 1 // state name for frame waiting
  25:nav_control.c **** #define IN_FRAME 2 // state name for being in frame
  26:nav_control.c **** #define BLACK_THRESHOLD 600 // pixel intensity for black
  27:nav_control.c **** #define MAX_SAMPLES 10 // number of previous bits to consider for average 
  28:nav_control.c **** #define LEFT 0 // left of line state when exploring line
  29:nav_control.c **** #define ON_LINE 1 // on black line state when exploring line
  30:nav_control.c **** #define RIGHT 2 // right of line state when exploring line 
ARM GAS  C:\Users\ryant\AppData\Local\Temp\cc4RVoga.s 			page 2


  31:nav_control.c **** #define LINE_OF_INTEREST 120 // line that we want to calculate line value for
  32:nav_control.c **** #define TARGET_LINECOUNT 65060 // ideal line count for line in center
  33:nav_control.c **** #define NANO_S_PER_COUNT 42 // how many ns elapse per count
  34:nav_control.c **** 
  35:nav_control.c **** // Global flags
  36:nav_control.c **** int STEER_STATE = 0;
  37:nav_control.c **** int VIDEO_STATE = 0;
  38:nav_control.c **** int CAPTURE_FRAME = 0;
  39:nav_control.c **** int LINE_STATE = LEFT;
  40:nav_control.c **** int NAVIGATION_LINE = 0;
  41:nav_control.c **** int CENTER_ANGLE = 74; // true straight angle of servos
  42:nav_control.c **** int LINE_SEEN = 0;
  43:nav_control.c **** int FRAME_PARITY = 1;
  44:nav_control.c **** 
  45:nav_control.c **** // Global variables 
  46:nav_control.c **** int num_h_pulse = 0;
  47:nav_control.c **** int line_count = 0;
  48:nav_control.c **** int left_count = 0;
  49:nav_control.c **** int right_count = 0;
  50:nav_control.c **** int oldest_value = 0;
  51:nav_control.c **** int num_interupts = 0;
  52:nav_control.c **** int average_buf[MAX_SAMPLES];
  53:nav_control.c **** float average_position;
  54:nav_control.c **** char outputBuf[BUF_SIZE];
  55:nav_control.c **** int frameVal[15000];
  56:nav_control.c **** int frameIndex = 0;
  57:nav_control.c **** uint16 line_time; 
  58:nav_control.c **** int numFrame = 0;
  59:nav_control.c **** int RUN_STATE = 0;
  60:nav_control.c **** 
  61:nav_control.c **** float kp_servo = 0.15; // Proportional constant 
  62:nav_control.c **** float ki_servo = 0; // Integral constant 
  63:nav_control.c **** float kd_servo = 0; // Derivative constant
  64:nav_control.c **** float prev_error_servo = 0; // Error calculated during previous interrupt
  65:nav_control.c **** float prev_i_term_servo = 0; // Integral term calculated during previous interrupt 
  66:nav_control.c **** float prev_angle = 74;
  67:nav_control.c **** 
  68:nav_control.c **** 
  69:nav_control.c **** // ---------------NAVIGATION CONTROL CODE---------------
  70:nav_control.c **** 
  71:nav_control.c **** //Take in an integer angle btwn 0 and 180 and output corresponding pwm width
  72:nav_control.c **** // Adapted from arduino map function
  73:nav_control.c **** uint16 Servo_PWM_AngleCalc(int angle) {
  28              		.loc 1 73 0
  29              		.cfi_startproc
  30              		@ args = 0, pretend = 0, frame = 0
  31              		@ frame_needed = 0, uses_anonymous_args = 0
  32              		@ link register save eliminated.
  33              	.LVL0:
  74:nav_control.c ****     if (angle < LEFT_POSITION) return MIN_SERVO_PWM;
  34              		.loc 1 74 0
  35 0000 0028     		cmp	r0, #0
  36 0002 10DB     		blt	.L3
  75:nav_control.c ****     else if (angle > RIGHT_POSITION) return MAX_SERVO_PWM;
  37              		.loc 1 75 0
  38 0004 9628     		cmp	r0, #150
  39 0006 11DC     		bgt	.L4
ARM GAS  C:\Users\ryant\AppData\Local\Temp\cc4RVoga.s 			page 3


  76:nav_control.c ****     return ((angle - MIN_ANGLE) * (MAX_SERVO_PWM - MIN_SERVO_PWM) / (MAX_ANGLE - MIN_ANGLE) + MIN_S
  40              		.loc 1 76 0
  41 0008 40F21E53 		movw	r3, #1310
  42 000c 03FB00F0 		mul	r0, r3, r0
  43              	.LVL1:
  44 0010 084B     		ldr	r3, .L5
  45 0012 83FB0023 		smull	r2, r3, r3, r0
  46 0016 0344     		add	r3, r3, r0
  47 0018 C017     		asrs	r0, r0, #31
  48 001a C0EBE310 		rsb	r0, r0, r3, asr #7
  49 001e 00F21E50 		addw	r0, r0, #1310
  50 0022 80B2     		uxth	r0, r0
  51 0024 7047     		bx	lr
  52              	.LVL2:
  53              	.L3:
  74:nav_control.c ****     if (angle < LEFT_POSITION) return MIN_SERVO_PWM;
  54              		.loc 1 74 0
  55 0026 40F21E50 		movw	r0, #1310
  56              	.LVL3:
  57 002a 7047     		bx	lr
  58              	.LVL4:
  59              	.L4:
  75:nav_control.c ****     else if (angle > RIGHT_POSITION) return MAX_SERVO_PWM;
  60              		.loc 1 75 0
  61 002c 40F63C20 		movw	r0, #2620
  62              	.LVL5:
  77:nav_control.c **** }
  63              		.loc 1 77 0
  64 0030 7047     		bx	lr
  65              	.L6:
  66 0032 00BF     		.align	2
  67              	.L5:
  68 0034 B7600BB6 		.word	-1240768329
  69              		.cfi_endproc
  70              	.LFE64:
  71              		.size	Servo_PWM_AngleCalc, .-Servo_PWM_AngleCalc
  72              		.section	.text.print_xbee,"ax",%progbits
  73              		.align	2
  74              		.global	print_xbee
  75              		.thumb
  76              		.thumb_func
  77              		.type	print_xbee, %function
  78              	print_xbee:
  79              	.LFB65:
  78:nav_control.c **** 
  79:nav_control.c **** // Print a string to the XBEE with some formating 
  80:nav_control.c **** void print_xbee(char* string, int num) {
  80              		.loc 1 80 0
  81              		.cfi_startproc
  82              		@ args = 0, pretend = 0, frame = 64
  83              		@ frame_needed = 0, uses_anonymous_args = 0
  84              	.LVL6:
  85 0000 00B5     		push	{lr}
  86              		.cfi_def_cfa_offset 4
  87              		.cfi_offset 14, -4
  88 0002 91B0     		sub	sp, sp, #68
  89              		.cfi_def_cfa_offset 72
ARM GAS  C:\Users\ryant\AppData\Local\Temp\cc4RVoga.s 			page 4


  81:nav_control.c ****     char buf[64];
  82:nav_control.c ****     sprintf(buf, string, num);
  90              		.loc 1 82 0
  91 0004 0A46     		mov	r2, r1
  92 0006 0146     		mov	r1, r0
  93              	.LVL7:
  94 0008 6846     		mov	r0, sp
  95              	.LVL8:
  96 000a FFF7FEFF 		bl	sprintf
  97              	.LVL9:
  83:nav_control.c ****     XBEE_PutString(buf);
  98              		.loc 1 83 0
  99 000e 6846     		mov	r0, sp
 100 0010 FFF7FEFF 		bl	XBEE_PutString
 101              	.LVL10:
  84:nav_control.c **** }
 102              		.loc 1 84 0
 103 0014 11B0     		add	sp, sp, #68
 104              		.cfi_def_cfa_offset 4
 105              		@ sp needed
 106 0016 5DF804FB 		ldr	pc, [sp], #4
 107              		.cfi_endproc
 108              	.LFE65:
 109              		.size	print_xbee, .-print_xbee
 110              		.global	__aeabi_fsub
 111              		.global	__aeabi_fmul
 112              		.global	__aeabi_fadd
 113 001a 00BF     		.section	.text.Servo_PID_Control,"ax",%progbits
 114              		.align	2
 115              		.global	Servo_PID_Control
 116              		.thumb
 117              		.thumb_func
 118              		.type	Servo_PID_Control, %function
 119              	Servo_PID_Control:
 120              	.LFB66:
  85:nav_control.c **** 
  86:nav_control.c **** // Control function for steering 
  87:nav_control.c **** float Servo_PID_Control(float linecount) {
 121              		.loc 1 87 0
 122              		.cfi_startproc
 123              		@ args = 0, pretend = 0, frame = 0
 124              		@ frame_needed = 0, uses_anonymous_args = 0
 125              	.LVL11:
 126 0000 70B5     		push	{r4, r5, r6, lr}
 127              		.cfi_def_cfa_offset 16
 128              		.cfi_offset 4, -16
 129              		.cfi_offset 5, -12
 130              		.cfi_offset 6, -8
 131              		.cfi_offset 14, -4
 132              	.LVL12:
  88:nav_control.c ****         float p_term = 0;
  89:nav_control.c ****         float i_term = 0;
  90:nav_control.c ****         float d_term = 0;
  91:nav_control.c ****         float output;
  92:nav_control.c ****        
  93:nav_control.c ****     
  94:nav_control.c ****         float error = TARGET_LINECOUNT - linecount;
ARM GAS  C:\Users\ryant\AppData\Local\Temp\cc4RVoga.s 			page 5


 133              		.loc 1 94 0
 134 0002 0146     		mov	r1, r0
 135 0004 0B48     		ldr	r0, .L11
 136              	.LVL13:
 137 0006 FFF7FEFF 		bl	__aeabi_fsub
 138              	.LVL14:
 139 000a 0546     		mov	r5, r0
 140              	.LVL15:
  95:nav_control.c ****         
  96:nav_control.c ****         float dt = 1/30;
  97:nav_control.c **** 
  98:nav_control.c ****         //Proportional Term
  99:nav_control.c ****         p_term = kp_servo * error;
 141              		.loc 1 99 0
 142 000c 0A4B     		ldr	r3, .L11+4
 143 000e 1968     		ldr	r1, [r3]	@ float
 144 0010 FFF7FEFF 		bl	__aeabi_fmul
 145              	.LVL16:
 146 0014 0646     		mov	r6, r0
 147              	.LVL17:
 100:nav_control.c ****         //Integral Term
 101:nav_control.c ****         i_term =  ((ki_servo) * (prev_i_term_servo + (error)*(dt)));
 148              		.loc 1 101 0
 149 0016 0021     		movs	r1, #0
 150 0018 2846     		mov	r0, r5
 151              	.LVL18:
 152 001a FFF7FEFF 		bl	__aeabi_fmul
 153              	.LVL19:
 154 001e 074C     		ldr	r4, .L11+8
 155 0020 2168     		ldr	r1, [r4]	@ float
 156 0022 FFF7FEFF 		bl	__aeabi_fadd
 157              	.LVL20:
 158 0026 6168     		ldr	r1, [r4, #4]	@ float
 159 0028 FFF7FEFF 		bl	__aeabi_fmul
 160              	.LVL21:
 102:nav_control.c ****         //Derivative Term
 103:nav_control.c ****         d_term = kd_servo * ((error - prev_error_servo)/dt);
 104:nav_control.c ****       
 105:nav_control.c ****         output = p_term; 
 106:nav_control.c ****        
 107:nav_control.c ****         
 108:nav_control.c ****         prev_error_servo = error;
 161              		.loc 1 108 0
 162 002c A560     		str	r5, [r4, #8]	@ float
 109:nav_control.c ****         prev_i_term_servo = i_term;
 163              		.loc 1 109 0
 164 002e 2060     		str	r0, [r4]	@ float
 110:nav_control.c ****         
 111:nav_control.c ****         return output;
 112:nav_control.c **** }
 165              		.loc 1 112 0
 166 0030 3046     		mov	r0, r6
 167              	.LVL22:
 168 0032 70BD     		pop	{r4, r5, r6, pc}
 169              	.LVL23:
 170              	.L12:
 171              		.align	2
ARM GAS  C:\Users\ryant\AppData\Local\Temp\cc4RVoga.s 			page 6


 172              	.L11:
 173 0034 00247E47 		.word	1199449088
 174 0038 00000000 		.word	.LANCHOR0
 175 003c 00000000 		.word	.LANCHOR1
 176              		.cfi_endproc
 177              	.LFE66:
 178              		.size	Servo_PID_Control, .-Servo_PID_Control
 179              		.section	.text.Porch_Int_ISR,"ax",%progbits
 180              		.align	2
 181              		.global	Porch_Int_ISR
 182              		.thumb
 183              		.thumb_func
 184              		.type	Porch_Int_ISR, %function
 185              	Porch_Int_ISR:
 186              	.LFB67:
 113:nav_control.c **** 
 114:nav_control.c **** // Reset the timer after seeing the back porch
 115:nav_control.c **** CY_ISR(Porch_Int_ISR) {
 187              		.loc 1 115 0
 188              		.cfi_startproc
 189              		@ args = 0, pretend = 0, frame = 0
 190              		@ frame_needed = 0, uses_anonymous_args = 0
 191 0000 08B5     		push	{r3, lr}
 192              		.cfi_def_cfa_offset 8
 193              		.cfi_offset 3, -8
 194              		.cfi_offset 14, -4
 116:nav_control.c ****     if (line_count == LINE_OF_INTEREST) {
 195              		.loc 1 116 0
 196 0002 054B     		ldr	r3, .L16
 197 0004 DB68     		ldr	r3, [r3, #12]
 198 0006 782B     		cmp	r3, #120
 199 0008 05D1     		bne	.L13
 117:nav_control.c ****         Line_Time_Reset_Write(1);
 200              		.loc 1 117 0
 201 000a 0120     		movs	r0, #1
 202 000c FFF7FEFF 		bl	Line_Time_Reset_Write
 203              	.LVL24:
 118:nav_control.c ****         Line_Time_Reset_Write(0);
 204              		.loc 1 118 0
 205 0010 0020     		movs	r0, #0
 206 0012 FFF7FEFF 		bl	Line_Time_Reset_Write
 207              	.LVL25:
 208              	.L13:
 209 0016 08BD     		pop	{r3, pc}
 210              	.L17:
 211              		.align	2
 212              	.L16:
 213 0018 00000000 		.word	.LANCHOR1
 214              		.cfi_endproc
 215              	.LFE67:
 216              		.size	Porch_Int_ISR, .-Porch_Int_ISR
 217              		.global	__aeabi_ui2f
 218              		.global	__aeabi_i2f
 219              		.global	__aeabi_f2iz
 220              		.section	.text.Line_Int_ISR,"ax",%progbits
 221              		.align	2
 222              		.global	Line_Int_ISR
ARM GAS  C:\Users\ryant\AppData\Local\Temp\cc4RVoga.s 			page 7


 223              		.thumb
 224              		.thumb_func
 225              		.type	Line_Int_ISR, %function
 226              	Line_Int_ISR:
 227              	.LFB68:
 119:nav_control.c ****     }
 120:nav_control.c **** }
 121:nav_control.c **** 
 122:nav_control.c **** // If on line of interest, calculate error and send PWM value to servo
 123:nav_control.c **** CY_ISR(Line_Int_ISR){
 228              		.loc 1 123 0
 229              		.cfi_startproc
 230              		@ args = 0, pretend = 0, frame = 0
 231              		@ frame_needed = 0, uses_anonymous_args = 0
 124:nav_control.c ****     float angle;
 125:nav_control.c ****     float output;
 126:nav_control.c ****     if (RUN_STATE || STEER_STATE) {
 232              		.loc 1 126 0
 233 0000 214B     		ldr	r3, .L24
 234 0002 1B69     		ldr	r3, [r3, #16]
 235 0004 1BB9     		cbnz	r3, .L19
 236              		.loc 1 126 0 is_stmt 0 discriminator 1
 237 0006 204B     		ldr	r3, .L24
 238 0008 5B69     		ldr	r3, [r3, #20]
 239 000a 002B     		cmp	r3, #0
 240 000c 3AD0     		beq	.L23
 241              	.L19:
 127:nav_control.c ****         if (line_count == LINE_OF_INTEREST) {
 242              		.loc 1 127 0 is_stmt 1
 243 000e 1E4B     		ldr	r3, .L24
 244 0010 DB68     		ldr	r3, [r3, #12]
 245 0012 782B     		cmp	r3, #120
 246 0014 36D1     		bne	.L23
 123:nav_control.c ****     float angle;
 247              		.loc 1 123 0
 248 0016 70B5     		push	{r4, r5, r6, lr}
 249              		.cfi_def_cfa_offset 16
 250              		.cfi_offset 4, -16
 251              		.cfi_offset 5, -12
 252              		.cfi_offset 6, -8
 253              		.cfi_offset 14, -4
 128:nav_control.c ****             LINE_SEEN = 1;
 254              		.loc 1 128 0
 255 0018 0122     		movs	r2, #1
 256 001a 1B4B     		ldr	r3, .L24
 257 001c 9A61     		str	r2, [r3, #24]
 129:nav_control.c ****             line_time = Line_Timer_ReadCapture();
 258              		.loc 1 129 0
 259 001e FFF7FEFF 		bl	Line_Timer_ReadCapture
 260              	.LVL26:
 261 0022 1A4B     		ldr	r3, .L24+4
 262 0024 1880     		strh	r0, [r3]	@ movhi
 130:nav_control.c **** 
 131:nav_control.c ****             // Determine PWM value to send to Servo
 132:nav_control.c ****             output = Servo_PID_Control(line_time);
 263              		.loc 1 132 0
 264 0026 FFF7FEFF 		bl	__aeabi_ui2f
ARM GAS  C:\Users\ryant\AppData\Local\Temp\cc4RVoga.s 			page 8


 265              	.LVL27:
 266 002a FFF7FEFF 		bl	Servo_PID_Control
 267              	.LVL28:
 268 002e 0446     		mov	r4, r0
 269              	.LVL29:
 133:nav_control.c ****             angle = CENTER_ANGLE  + output;
 270              		.loc 1 133 0
 271 0030 174D     		ldr	r5, .L24+8
 272 0032 6868     		ldr	r0, [r5, #4]
 273              	.LVL30:
 274 0034 FFF7FEFF 		bl	__aeabi_i2f
 275              	.LVL31:
 276 0038 0146     		mov	r1, r0
 277 003a 2046     		mov	r0, r4
 278 003c FFF7FEFF 		bl	__aeabi_fadd
 279              	.LVL32:
 280 0040 0446     		mov	r4, r0
 281              	.LVL33:
 134:nav_control.c ****             
 135:nav_control.c ****             // Throw out line if too extreme
 136:nav_control.c ****             if (abs((int)angle - (int)prev_angle) > 150) {
 282              		.loc 1 136 0
 283 0042 FFF7FEFF 		bl	__aeabi_f2iz
 284              	.LVL34:
 285 0046 0646     		mov	r6, r0
 286 0048 A868     		ldr	r0, [r5, #8]	@ float
 287 004a FFF7FEFF 		bl	__aeabi_f2iz
 288              	.LVL35:
 289 004e 301A     		subs	r0, r6, r0
 290 0050 0028     		cmp	r0, #0
 291 0052 B8BF     		it	lt
 292 0054 4042     		rsblt	r0, r0, #0
 293 0056 9628     		cmp	r0, #150
 294 0058 04DD     		ble	.L21
 137:nav_control.c ****                 print_xbee("!!!CALCULATED ANGLE was : %i\n\r", (int)angle);
 295              		.loc 1 137 0
 296 005a 3146     		mov	r1, r6
 297 005c 0D48     		ldr	r0, .L24+12
 298 005e FFF7FEFF 		bl	print_xbee
 299              	.LVL36:
 138:nav_control.c ****                 angle = prev_angle;
 300              		.loc 1 138 0
 301 0062 AC68     		ldr	r4, [r5, #8]	@ float
 302              	.LVL37:
 303              	.L21:
 139:nav_control.c ****             }
 140:nav_control.c ****             print_xbee("ANGLE: %i\n\r", (int)angle);
 304              		.loc 1 140 0
 305 0064 2046     		mov	r0, r4
 306 0066 FFF7FEFF 		bl	__aeabi_f2iz
 307              	.LVL38:
 308 006a 0546     		mov	r5, r0
 309 006c 0146     		mov	r1, r0
 310 006e 0A48     		ldr	r0, .L24+16
 311 0070 FFF7FEFF 		bl	print_xbee
 312              	.LVL39:
 141:nav_control.c ****             
ARM GAS  C:\Users\ryant\AppData\Local\Temp\cc4RVoga.s 			page 9


 142:nav_control.c ****             // Write to Servo
 143:nav_control.c ****             Servo_PWM_WriteCompare(Servo_PWM_AngleCalc((int)angle));
 313              		.loc 1 143 0
 314 0074 2846     		mov	r0, r5
 315 0076 FFF7FEFF 		bl	Servo_PWM_AngleCalc
 316              	.LVL40:
 317 007a FFF7FEFF 		bl	Servo_PWM_WriteCompare
 318              	.LVL41:
 144:nav_control.c ****             prev_angle = angle;
 319              		.loc 1 144 0
 320 007e 044B     		ldr	r3, .L24+8
 321 0080 9C60     		str	r4, [r3, #8]	@ float
 322 0082 70BD     		pop	{r4, r5, r6, pc}
 323              	.LVL42:
 324              	.L23:
 325              		.cfi_def_cfa_offset 0
 326              		.cfi_restore 4
 327              		.cfi_restore 5
 328              		.cfi_restore 6
 329              		.cfi_restore 14
 330 0084 7047     		bx	lr
 331              	.L25:
 332 0086 00BF     		.align	2
 333              	.L24:
 334 0088 00000000 		.word	.LANCHOR1
 335 008c 00000000 		.word	line_time
 336 0090 00000000 		.word	.LANCHOR0
 337 0094 00000000 		.word	.LC0
 338 0098 20000000 		.word	.LC1
 339              		.cfi_endproc
 340              	.LFE68:
 341              		.size	Line_Int_ISR, .-Line_Int_ISR
 342              		.section	.text.V_Sync_ISR,"ax",%progbits
 343              		.align	2
 344              		.global	V_Sync_ISR
 345              		.thumb
 346              		.thumb_func
 347              		.type	V_Sync_ISR, %function
 348              	V_Sync_ISR:
 349              	.LFB69:
 145:nav_control.c ****         }
 146:nav_control.c ****     }
 147:nav_control.c **** }
 148:nav_control.c **** 
 149:nav_control.c **** 
 150:nav_control.c **** // V Sync Interrupt Handler
 151:nav_control.c **** CY_ISR(V_Sync_ISR) {
 350              		.loc 1 151 0
 351              		.cfi_startproc
 352              		@ args = 0, pretend = 0, frame = 0
 353              		@ frame_needed = 0, uses_anonymous_args = 0
 354              		@ link register save eliminated.
 152:nav_control.c ****     VIDEO_STATE = FRAME_WAIT;
 355              		.loc 1 152 0
 356 0000 0122     		movs	r2, #1
 357 0002 014B     		ldr	r3, .L27
 358 0004 DA61     		str	r2, [r3, #28]
ARM GAS  C:\Users\ryant\AppData\Local\Temp\cc4RVoga.s 			page 10


 359 0006 7047     		bx	lr
 360              	.L28:
 361              		.align	2
 362              	.L27:
 363 0008 00000000 		.word	.LANCHOR1
 364              		.cfi_endproc
 365              	.LFE69:
 366              		.size	V_Sync_ISR, .-V_Sync_ISR
 367              		.section	.text.H_Sync_ISR,"ax",%progbits
 368              		.align	2
 369              		.global	H_Sync_ISR
 370              		.thumb
 371              		.thumb_func
 372              		.type	H_Sync_ISR, %function
 373              	H_Sync_ISR:
 374              	.LFB70:
 153:nav_control.c **** }
 154:nav_control.c **** 
 155:nav_control.c **** // H Sync Interrupt Handler
 156:nav_control.c **** CY_ISR(H_Sync_ISR) {
 375              		.loc 1 156 0
 376              		.cfi_startproc
 377              		@ args = 0, pretend = 0, frame = 0
 378              		@ frame_needed = 0, uses_anonymous_args = 0
 379              		@ link register save eliminated.
 157:nav_control.c ****     num_h_pulse++;
 380              		.loc 1 157 0
 381 0000 174A     		ldr	r2, .L35
 382 0002 136A     		ldr	r3, [r2, #32]
 383 0004 0133     		adds	r3, r3, #1
 384 0006 1362     		str	r3, [r2, #32]
 158:nav_control.c ****     
 159:nav_control.c ****     switch(VIDEO_STATE) {
 385              		.loc 1 159 0
 386 0008 D269     		ldr	r2, [r2, #28]
 387 000a 012A     		cmp	r2, #1
 388 000c 02D0     		beq	.L31
 389 000e 022A     		cmp	r2, #2
 390 0010 0BD0     		beq	.L32
 391 0012 7047     		bx	lr
 392              	.L31:
 160:nav_control.c ****     
 161:nav_control.c ****         // Waiting for V Sync
 162:nav_control.c ****         case V_SYNC_WAIT:
 163:nav_control.c ****             break;
 164:nav_control.c ****         
 165:nav_control.c ****         // Waiting for next frame to start
 166:nav_control.c ****         case FRAME_WAIT:
 167:nav_control.c ****             num_h_pulse++;
 393              		.loc 1 167 0
 394 0014 0133     		adds	r3, r3, #1
 395 0016 124A     		ldr	r2, .L35
 396 0018 1362     		str	r3, [r2, #32]
 168:nav_control.c ****             if (num_h_pulse >= MAX_H_PULSES) {
 397              		.loc 1 168 0
 398 001a 082B     		cmp	r3, #8
 399 001c 1EDD     		ble	.L29
ARM GAS  C:\Users\ryant\AppData\Local\Temp\cc4RVoga.s 			page 11


 169:nav_control.c ****                 num_h_pulse = 0;
 400              		.loc 1 169 0
 401 001e 1346     		mov	r3, r2
 402 0020 0022     		movs	r2, #0
 403 0022 1A62     		str	r2, [r3, #32]
 170:nav_control.c ****                 VIDEO_STATE = IN_FRAME;
 404              		.loc 1 170 0
 405 0024 0222     		movs	r2, #2
 406 0026 DA61     		str	r2, [r3, #28]
 407 0028 7047     		bx	lr
 408              	.L32:
 171:nav_control.c ****             }
 172:nav_control.c ****             break;
 173:nav_control.c ****             
 174:nav_control.c ****         // In frame
 175:nav_control.c ****         case IN_FRAME:  
 176:nav_control.c ****             
 177:nav_control.c ****             line_count++;
 409              		.loc 1 177 0
 410 002a 0D4A     		ldr	r2, .L35
 411 002c D368     		ldr	r3, [r2, #12]
 412 002e 0133     		adds	r3, r3, #1
 413 0030 D360     		str	r3, [r2, #12]
 178:nav_control.c ****             // Check if on line of interest
 179:nav_control.c ****             if (line_count == LINE_OF_INTEREST) {
 414              		.loc 1 179 0
 415 0032 782B     		cmp	r3, #120
 416 0034 02D1     		bne	.L33
 180:nav_control.c ****                 NAVIGATION_LINE = 1;
 417              		.loc 1 180 0
 418 0036 0121     		movs	r1, #1
 419 0038 5162     		str	r1, [r2, #36]
 420 003a 02E0     		b	.L34
 421              	.L33:
 181:nav_control.c ****             }
 182:nav_control.c ****             else {
 183:nav_control.c ****                 NAVIGATION_LINE = 0;  
 422              		.loc 1 183 0
 423 003c 0021     		movs	r1, #0
 424 003e 084A     		ldr	r2, .L35
 425 0040 5162     		str	r1, [r2, #36]
 426              	.L34:
 184:nav_control.c ****             }
 185:nav_control.c ****             
 186:nav_control.c ****             // Check if end of frame
 187:nav_control.c ****             if (line_count >= FRAME_HEIGHT) {
 427              		.loc 1 187 0
 428 0042 EF2B     		cmp	r3, #239
 429 0044 0ADD     		ble	.L29
 188:nav_control.c ****                 line_count = 0;
 430              		.loc 1 188 0
 431 0046 064B     		ldr	r3, .L35
 432 0048 0022     		movs	r2, #0
 433 004a DA60     		str	r2, [r3, #12]
 189:nav_control.c ****                 LINE_SEEN = 0;
 434              		.loc 1 189 0
 435 004c 9A61     		str	r2, [r3, #24]
ARM GAS  C:\Users\ryant\AppData\Local\Temp\cc4RVoga.s 			page 12


 190:nav_control.c ****                 VIDEO_STATE = V_SYNC_WAIT;
 436              		.loc 1 190 0
 437 004e DA61     		str	r2, [r3, #28]
 191:nav_control.c ****                 FRAME_PARITY = !FRAME_PARITY;
 438              		.loc 1 191 0
 439 0050 044A     		ldr	r2, .L35+4
 440 0052 D368     		ldr	r3, [r2, #12]
 441 0054 B3FA83F3 		clz	r3, r3
 442 0058 5B09     		lsrs	r3, r3, #5
 443 005a D360     		str	r3, [r2, #12]
 444              	.L29:
 445 005c 7047     		bx	lr
 446              	.L36:
 447 005e 00BF     		.align	2
 448              	.L35:
 449 0060 00000000 		.word	.LANCHOR1
 450 0064 00000000 		.word	.LANCHOR0
 451              		.cfi_endproc
 452              	.LFE70:
 453              		.size	H_Sync_ISR, .-H_Sync_ISR
 454              		.global	prev_angle
 455              		.global	prev_i_term_servo
 456              		.global	prev_error_servo
 457              		.global	kd_servo
 458              		.global	ki_servo
 459              		.global	kp_servo
 460              		.global	numFrame
 461              		.comm	line_time,2,2
 462              		.global	frameIndex
 463              		.comm	frameVal,60000,4
 464              		.comm	outputBuf,64,4
 465              		.comm	average_position,4,4
 466              		.comm	average_buf,40,4
 467              		.global	num_interupts
 468              		.global	oldest_value
 469              		.global	right_count
 470              		.global	left_count
 471              		.global	line_count
 472              		.global	num_h_pulse
 473              		.global	FRAME_PARITY
 474              		.global	LINE_SEEN
 475              		.global	CENTER_ANGLE
 476              		.global	NAVIGATION_LINE
 477              		.global	LINE_STATE
 478              		.global	CAPTURE_FRAME
 479              		.global	VIDEO_STATE
 480              		.global	STEER_STATE
 481              		.global	RUN_STATE
 482              		.comm	BALLOON_STATE,4,4
 483              		.data
 484              		.align	2
 485              		.set	.LANCHOR0,. + 0
 486              		.type	kp_servo, %object
 487              		.size	kp_servo, 4
 488              	kp_servo:
 489 0000 9A99193E 		.word	1041865114
 490              		.type	CENTER_ANGLE, %object
ARM GAS  C:\Users\ryant\AppData\Local\Temp\cc4RVoga.s 			page 13


 491              		.size	CENTER_ANGLE, 4
 492              	CENTER_ANGLE:
 493 0004 4A000000 		.word	74
 494              		.type	prev_angle, %object
 495              		.size	prev_angle, 4
 496              	prev_angle:
 497 0008 00009442 		.word	1116995584
 498              		.type	FRAME_PARITY, %object
 499              		.size	FRAME_PARITY, 4
 500              	FRAME_PARITY:
 501 000c 01000000 		.word	1
 502              		.section	.rodata.str1.4,"aMS",%progbits,1
 503              		.align	2
 504              	.LC0:
 505 0000 21212143 		.ascii	"!!!CALCULATED ANGLE was : %i\012\015\000"
 505      414C4355 
 505      4C415445 
 505      4420414E 
 505      474C4520 
 506 001f 00       		.space	1
 507              	.LC1:
 508 0020 414E474C 		.ascii	"ANGLE: %i\012\015\000"
 508      453A2025 
 508      690A0D00 
 509              		.bss
 510              		.align	2
 511              		.set	.LANCHOR1,. + 0
 512              		.type	prev_i_term_servo, %object
 513              		.size	prev_i_term_servo, 4
 514              	prev_i_term_servo:
 515 0000 00000000 		.space	4
 516              		.type	ki_servo, %object
 517              		.size	ki_servo, 4
 518              	ki_servo:
 519 0004 00000000 		.space	4
 520              		.type	prev_error_servo, %object
 521              		.size	prev_error_servo, 4
 522              	prev_error_servo:
 523 0008 00000000 		.space	4
 524              		.type	line_count, %object
 525              		.size	line_count, 4
 526              	line_count:
 527 000c 00000000 		.space	4
 528              		.type	RUN_STATE, %object
 529              		.size	RUN_STATE, 4
 530              	RUN_STATE:
 531 0010 00000000 		.space	4
 532              		.type	STEER_STATE, %object
 533              		.size	STEER_STATE, 4
 534              	STEER_STATE:
 535 0014 00000000 		.space	4
 536              		.type	LINE_SEEN, %object
 537              		.size	LINE_SEEN, 4
 538              	LINE_SEEN:
 539 0018 00000000 		.space	4
 540              		.type	VIDEO_STATE, %object
 541              		.size	VIDEO_STATE, 4
ARM GAS  C:\Users\ryant\AppData\Local\Temp\cc4RVoga.s 			page 14


 542              	VIDEO_STATE:
 543 001c 00000000 		.space	4
 544              		.type	num_h_pulse, %object
 545              		.size	num_h_pulse, 4
 546              	num_h_pulse:
 547 0020 00000000 		.space	4
 548              		.type	NAVIGATION_LINE, %object
 549              		.size	NAVIGATION_LINE, 4
 550              	NAVIGATION_LINE:
 551 0024 00000000 		.space	4
 552              		.type	kd_servo, %object
 553              		.size	kd_servo, 4
 554              	kd_servo:
 555 0028 00000000 		.space	4
 556              		.type	numFrame, %object
 557              		.size	numFrame, 4
 558              	numFrame:
 559 002c 00000000 		.space	4
 560              		.type	frameIndex, %object
 561              		.size	frameIndex, 4
 562              	frameIndex:
 563 0030 00000000 		.space	4
 564              		.type	num_interupts, %object
 565              		.size	num_interupts, 4
 566              	num_interupts:
 567 0034 00000000 		.space	4
 568              		.type	oldest_value, %object
 569              		.size	oldest_value, 4
 570              	oldest_value:
 571 0038 00000000 		.space	4
 572              		.type	right_count, %object
 573              		.size	right_count, 4
 574              	right_count:
 575 003c 00000000 		.space	4
 576              		.type	left_count, %object
 577              		.size	left_count, 4
 578              	left_count:
 579 0040 00000000 		.space	4
 580              		.type	LINE_STATE, %object
 581              		.size	LINE_STATE, 4
 582              	LINE_STATE:
 583 0044 00000000 		.space	4
 584              		.type	CAPTURE_FRAME, %object
 585              		.size	CAPTURE_FRAME, 4
 586              	CAPTURE_FRAME:
 587 0048 00000000 		.space	4
 588              		.text
 589              	.Letext0:
 590              		.file 2 "c:\\program files (x86)\\cypress\\psoc creator\\4.2\\psoc creator\\import\\gnu\\arm\\5.4.
 591              		.file 3 "c:\\program files (x86)\\cypress\\psoc creator\\4.2\\psoc creator\\import\\gnu\\arm\\5.4.
 592              		.file 4 "Generated_Source\\PSoC5/cytypes.h"
 593              		.file 5 "Generated_Source\\PSoC5/core_cm3.h"
 594              		.file 6 "balloon.h"
 595              		.file 7 "c:\\program files (x86)\\cypress\\psoc creator\\4.2\\psoc creator\\import\\gnu\\arm\\5.4.
 596              		.file 8 "Generated_Source\\PSoC5/XBEE.h"
 597              		.file 9 "Generated_Source\\PSoC5/Line_Time_Reset.h"
 598              		.file 10 "Generated_Source\\PSoC5/Line_Timer.h"
ARM GAS  C:\Users\ryant\AppData\Local\Temp\cc4RVoga.s 			page 15


 599              		.file 11 "Generated_Source\\PSoC5/Servo_PWM.h"